(dp1
S'output'
p2
S"<type 'exceptions.ImportError'> No module named appconfig"
p3
sS'layer'
p4
S'/home/ayush/web2py/applications/welcome/models/db.py'
p5
sS'code'
p6
S"# -*- coding: utf-8 -*-\n\n#########################################################################\n## This scaffolding model makes your app work on Google App Engine too\n## File is released under public domain and you can use without limitations\n#########################################################################\n\n## if SSL/HTTPS is properly configured and you want all HTTP requests to\n## be redirected to HTTPS, uncomment the line below:\n# request.requires_https()\n\n## app configuration made easy. Look inside private/appconfig.ini\nfrom gluon.contrib.appconfig import AppConfig\n## once in production, remove reload=True to gain full speed\nmyconf = AppConfig(reload=True)\n\n\nif not request.env.web2py_runtime_gae:\n    ## if NOT running on Google App Engine use SQLite or other DB\n    db = DAL(myconf.take('db.uri'), pool_size=myconf.take('db.pool_size', cast=int), check_reserved=['all'])\nelse:\n    ## connect to Google BigTable (optional 'google:datastore://namespace')\n    db = DAL('google:datastore+ndb')\n    ## store sessions and tickets there\n    session.connect(request, response, db=db)\n    ## or store session in Memcache, Redis, etc.\n    ## from gluon.contrib.memdb import MEMDB\n    ## from google.appengine.api.memcache import Client\n    ## session.connect(request, response, db = MEMDB(Client()))\n\n## by default give a view/generic.extension to all actions from localhost\n## none otherwise. a pattern can be 'controller/function.extension'\nresponse.generic_patterns = ['*'] if request.is_local else []\n## choose a style for forms\nresponse.formstyle = myconf.take('forms.formstyle')  # or 'bootstrap3_stacked' or 'bootstrap2' or other\nresponse.form_label_separator = myconf.take('forms.separator')\n\n\n## (optional) optimize handling of static files\n# response.optimize_css = 'concat,minify,inline'\n# response.optimize_js = 'concat,minify,inline'\n## (optional) static assets folder versioning\n# response.static_version = '0.0.0'\n#########################################################################\n## Here is sample code if you need for\n## - email capabilities\n## - authentication (registration, login, logout, ... )\n## - authorization (role based authorization)\n## - services (xml, csv, json, xmlrpc, jsonrpc, amf, rss)\n## - old style crud actions\n## (more options discussed in gluon/tools.py)\n#########################################################################\n\nfrom gluon.tools import Auth, Service, PluginManager\n\nauth = Auth(db)\nservice = Service()\nplugins = PluginManager()\n\n## create all tables needed by auth if not custom tables\nauth.define_tables(username=False, signature=False)\n\n## configure email\nmail = auth.settings.mailer\nmail.settings.server = 'logging' if request.is_local else myconf.take('smtp.server')\nmail.settings.sender = myconf.take('smtp.sender')\nmail.settings.login = myconf.take('smtp.login')\n\n## configure auth policy\nauth.settings.registration_requires_verification = False\nauth.settings.registration_requires_approval = False\nauth.settings.reset_password_requires_verification = True\n\n#########################################################################\n## Define your tables below (or better in another model file) for example\n##\n## >>> db.define_table('mytable',Field('myfield','string'))\n##\n## Fields can be 'string','text','password','integer','double','boolean'\n##       'date','time','datetime','blob','upload', 'reference TABLENAME'\n## There is an implicit 'id integer autoincrement' field\n## Consult manual for more options, validators, etc.\n##\n## More API examples for controllers:\n##\n## >>> db.mytable.insert(myfield='value')\n## >>> rows=db(db.mytable.myfield=='value').select(db.mytable.ALL)\n## >>> for row in rows: print row.id, row.myfield\n#########################################################################\n\n## after defining tables, uncomment below to enable auditing\n# auth.enable_record_versioning(db)\n"
p7
sS'snapshot'
p8
(dp9
S'exception'
p10
(dp11
S'__hash__'
p12
S"<method-wrapper '__hash__' of exceptions.ImportError object>"
p13
sS'__setattr__'
p14
S"<method-wrapper '__setattr__' of exceptions.ImportError object>"
p15
sS'__reduce_ex__'
p16
S'<built-in method __reduce_ex__ of exceptions.ImportError object>'
p17
sS'__getslice__'
p18
S"<method-wrapper '__getslice__' of exceptions.ImportError object>"
p19
sS'__getitem__'
p20
S"<method-wrapper '__getitem__' of exceptions.ImportError object>"
p21
sS'__setstate__'
p22
S'<built-in method __setstate__ of exceptions.ImportError object>'
p23
sS'__reduce__'
p24
S'<built-in method __reduce__ of exceptions.ImportError object>'
p25
sS'__str__'
p26
S"<method-wrapper '__str__' of exceptions.ImportError object>"
p27
sS'__format__'
p28
S'<built-in method __format__ of exceptions.ImportError object>'
p29
sS'__getattribute__'
p30
S"<method-wrapper '__getattribute__' of exceptions.ImportError object>"
p31
sS'__class__'
p32
S"<type 'exceptions.ImportError'>"
p33
sS'__unicode__'
p34
S'<built-in method __unicode__ of exceptions.ImportError object>'
p35
sS'__delattr__'
p36
S"<method-wrapper '__delattr__' of exceptions.ImportError object>"
p37
sS'__subclasshook__'
p38
S'<built-in method __subclasshook__ of type object>'
p39
sS'__repr__'
p40
S"<method-wrapper '__repr__' of exceptions.ImportError object>"
p41
sS'args'
p42
S"('No module named appconfig',)"
p43
sS'__dict__'
p44
S'{}'
p45
sS'__sizeof__'
p46
S'<built-in method __sizeof__ of exceptions.ImportError object>'
p47
sS'__doc__'
p48
S'"Import can\'t find module, or can\'t find name in module."'
p49
sS'__init__'
p50
S"<method-wrapper '__init__' of exceptions.ImportError object>"
p51
sS'__new__'
p52
S'<built-in method __new__ of type object>'
p53
ssS'evalue'
p54
S'No module named appconfig'
p55
sS'request'
p56
ccopy_reg
_reconstructor
p57
(cgluon.html
BEAUTIFY
p58
c__builtin__
object
p59
NtRp60
(dp61
S'attributes'
p62
(dp63
sS'components'
p64
(lp65
g57
(cgluon.html
TABLE
p66
g59
NtRp67
(dp68
g62
(dp69
S'level'
p70
I5
ssS'parent'
p71
Nsg64
(lp72
g57
(cgluon.html
TR
p73
g59
NtRp74
(dp75
g62
(dp76
sg71
g67
sg64
(lp77
g57
(cgluon.html
TD
p78
g59
NtRp79
(dp80
g62
(dp81
S'_style'
p82
S'font-weight:bold;vertical-align:top'
p83
ssg71
g74
sg64
(lp84
S'ajax'
p85
asbag57
(g78
g59
NtRp86
(dp87
g62
(dp88
S'_valign'
p89
S'top'
p90
ssg71
g74
sg64
(lp91
S':'
asbag57
(g78
g59
NtRp92
(dp93
g62
(dp94
sg71
g74
sg64
(lp95
g57
(g58
g59
NtRp96
(dp97
g62
(dp98
g70
I5
ssg71
g92
sg64
(lp99
S'False'
p100
asbasbasbag57
(g73
g59
NtRp101
(dp102
g62
(dp103
sg71
g67
sg64
(lp104
g57
(g78
g59
NtRp105
(dp106
g62
(dp107
g82
g83
ssg71
g101
sg64
(lp108
S'application'
p109
asbag57
(g78
g59
NtRp110
(dp111
g62
(dp112
g89
g90
ssg71
g101
sg64
(lp113
S':'
asbag57
(g78
g59
NtRp114
(dp115
g62
(dp116
sg71
g101
sg64
(lp117
g57
(g58
g59
NtRp118
(dp119
g62
(dp120
g70
I5
ssg71
g114
sg64
(lp121
S'welcome'
p122
asbasbasbag57
(g73
g59
NtRp123
(dp124
g62
(dp125
sg71
g67
sg64
(lp126
g57
(g78
g59
NtRp127
(dp128
g62
(dp129
g82
g83
ssg71
g123
sg64
(lp130
g42
asbag57
(g78
g59
NtRp131
(dp132
g62
(dp133
g89
g90
ssg71
g123
sg64
(lp134
S':'
asbag57
(g78
g59
NtRp135
(dp136
g62
(dp137
sg71
g123
sg64
(lp138
g57
(g58
g59
NtRp139
(dp140
g62
(dp141
g70
I5
ssg71
g135
sg64
(lp142
g57
(g66
g59
NtRp143
(dp144
g62
(dp145
g70
I4
ssg71
Nsg64
(lp146
sbasbasbasbag57
(g73
g59
NtRp147
(dp148
g62
(dp149
sg71
g67
sg64
(lp150
g57
(g78
g59
NtRp151
(dp152
g62
(dp153
g82
g83
ssg71
g147
sg64
(lp154
S'body'
p155
asbag57
(g78
g59
NtRp156
(dp157
g62
(dp158
g89
g90
ssg71
g147
sg64
(lp159
S':'
asbag57
(g78
g59
NtRp160
(dp161
g62
(dp162
sg71
g147
sg64
(lp163
g57
(g58
g59
NtRp164
(dp165
g62
(dp166
g70
I5
ssg71
g160
sg64
(lp167
S'<cStringIO.StringO object at 0xb10c87a0>'
p168
asbasbasbag57
(g73
g59
NtRp169
(dp170
g62
(dp171
sg71
g67
sg64
(lp172
g57
(g78
g59
NtRp173
(dp174
g62
(dp175
g82
g83
ssg71
g169
sg64
(lp176
S'client'
p177
asbag57
(g78
g59
NtRp178
(dp179
g62
(dp180
g89
g90
ssg71
g169
sg64
(lp181
S':'
asbag57
(g78
g59
NtRp182
(dp183
g62
(dp184
sg71
g169
sg64
(lp185
g57
(g58
g59
NtRp186
(dp187
g62
(dp188
g70
I5
ssg71
g182
sg64
(lp189
S'127.0.0.1'
p190
asbasbasbag57
(g73
g59
NtRp191
(dp192
g62
(dp193
sg71
g67
sg64
(lp194
g57
(g78
g59
NtRp195
(dp196
g62
(dp197
g82
g83
ssg71
g191
sg64
(lp198
S'controller'
p199
asbag57
(g78
g59
NtRp200
(dp201
g62
(dp202
g89
g90
ssg71
g191
sg64
(lp203
S':'
asbag57
(g78
g59
NtRp204
(dp205
g62
(dp206
sg71
g191
sg64
(lp207
g57
(g58
g59
NtRp208
(dp209
g62
(dp210
g70
I5
ssg71
g204
sg64
(lp211
S'default'
p212
asbasbasbag57
(g73
g59
NtRp213
(dp214
g62
(dp215
sg71
g67
sg64
(lp216
g57
(g78
g59
NtRp217
(dp218
g62
(dp219
g82
g83
ssg71
g213
sg64
(lp220
S'cookies'
p221
asbag57
(g78
g59
NtRp222
(dp223
g62
(dp224
g89
g90
ssg71
g213
sg64
(lp225
S':'
asbag57
(g78
g59
NtRp226
(dp227
g62
(dp228
sg71
g213
sg64
(lp229
g57
(g58
g59
NtRp230
(dp231
g62
(dp232
g70
I5
ssg71
g226
sg64
(lp233
g57
(g66
g59
NtRp234
(dp235
g62
(dp236
g70
I4
ssg71
Nsg64
(lp237
sbasbasbasbag57
(g73
g59
NtRp238
(dp239
g62
(dp240
sg71
g67
sg64
(lp241
g57
(g78
g59
NtRp242
(dp243
g62
(dp244
g82
g83
ssg71
g238
sg64
(lp245
S'env'
p246
asbag57
(g78
g59
NtRp247
(dp248
g62
(dp249
g89
g90
ssg71
g238
sg64
(lp250
S':'
asbag57
(g78
g59
NtRp251
(dp252
g62
(dp253
sg71
g238
sg64
(lp254
g57
(g58
g59
NtRp255
(dp256
g62
(dp257
g70
I5
ssg71
g251
sg64
(lp258
g57
(g66
g59
NtRp259
(dp260
g62
(dp261
g70
I4
ssg71
Nsg64
(lp262
g57
(g73
g59
NtRp263
(dp264
g62
(dp265
sg71
g259
sg64
(lp266
g57
(g78
g59
NtRp267
(dp268
g62
(dp269
g82
g83
ssg71
g263
sg64
(lp270
S'app_folders'
p271
asbag57
(g78
g59
NtRp272
(dp273
g62
(dp274
g89
g90
ssg71
g263
sg64
(lp275
S':'
asbag57
(g78
g59
NtRp276
(dp277
g62
(dp278
sg71
g263
sg64
(lp279
g57
(g58
g59
NtRp280
(dp281
g62
(dp282
g70
I4
ssg71
g276
sg64
(lp283
S"set(['/home/ayush/web2py/applications/welcome/'])"
p284
asbasbasbag57
(g73
g59
NtRp285
(dp286
g62
(dp287
sg71
g259
sg64
(lp288
g57
(g78
g59
NtRp289
(dp290
g62
(dp291
g82
g83
ssg71
g285
sg64
(lp292
S'applications_parent'
p293
asbag57
(g78
g59
NtRp294
(dp295
g62
(dp296
g89
g90
ssg71
g285
sg64
(lp297
S':'
asbag57
(g78
g59
NtRp298
(dp299
g62
(dp300
sg71
g285
sg64
(lp301
g57
(g58
g59
NtRp302
(dp303
g62
(dp304
g70
I4
ssg71
g298
sg64
(lp305
S'/home/ayush/web2py'
p306
asbasbasbag57
(g73
g59
NtRp307
(dp308
g62
(dp309
sg71
g259
sg64
(lp310
g57
(g78
g59
NtRp311
(dp312
g62
(dp313
g82
g83
ssg71
g307
sg64
(lp314
S'cmd_args'
p315
asbag57
(g78
g59
NtRp316
(dp317
g62
(dp318
g89
g90
ssg71
g307
sg64
(lp319
S':'
asbag57
(g78
g59
NtRp320
(dp321
g62
(dp322
sg71
g307
sg64
(lp323
g57
(g58
g59
NtRp324
(dp325
g62
(dp326
g70
I4
ssg71
g320
sg64
(lp327
g57
(g66
g59
NtRp328
(dp329
g62
(dp330
g70
I3
ssg71
Nsg64
(lp331
sbasbasbasbag57
(g73
g59
NtRp332
(dp333
g62
(dp334
sg71
g259
sg64
(lp335
g57
(g78
g59
NtRp336
(dp337
g62
(dp338
g82
g83
ssg71
g332
sg64
(lp339
S'cmd_options'
p340
asbag57
(g78
g59
NtRp341
(dp342
g62
(dp343
g89
g90
ssg71
g332
sg64
(lp344
S':'
asbag57
(g78
g59
NtRp345
(dp346
g62
(dp347
sg71
g332
sg64
(lp348
g57
(g58
g59
NtRp349
(dp350
g62
(dp351
g70
I4
ssg71
g345
sg64
(lp352
S"<Values at 0xb718440c: {'verbose': False, 'ip': '127.0.0.1', 'shutdown_timeout': 5, 'taskbar': False, 'nocron': False, 'pid_filename': 'httpserver.pid', 'maxthreads': None, 'softcron': False, 'server_name': 'ayush-HP-430-Notebook-PC', 'bpython': False, 'nogui': False, 'port': 8000, 'extcron': False, 'debuglevel': 30, 'test': None, 'folder': '/home/ayush/web2py', 'config': '', 'import_models': False, 'winservice': '', 'shell': None, 'run': '', 'log_filename': 'httpserver.log', 'args': [''], 'socket_timeout': 5, 'ssl_ca_certificate': None, 'scheduler': None, 'profiler_filename': None, 'ssl_private_key': '', 'password': '<ask>', 'request_queue_size': 5, 'ssl_certificate': '', 'cronjob': False, 'numthreads': None, 'quiet': False, 'interfaces': None, 'minthreads': None, 'timeout': 10, 'plain': False, 'nobanner': False}>"
p353
asbasbasbag57
(g73
g59
NtRp354
(dp355
g62
(dp356
sg71
g259
sg64
(lp357
g57
(g78
g59
NtRp358
(dp359
g62
(dp360
g82
g83
ssg71
g354
sg64
(lp361
S'db_sessions'
p362
asbag57
(g78
g59
NtRp363
(dp364
g62
(dp365
g89
g90
ssg71
g354
sg64
(lp366
S':'
asbag57
(g78
g59
NtRp367
(dp368
g62
(dp369
sg71
g354
sg64
(lp370
g57
(g58
g59
NtRp371
(dp372
g62
(dp373
g70
I4
ssg71
g367
sg64
(lp374
S'set([])'
p375
asbasbasbag57
(g73
g59
NtRp376
(dp377
g62
(dp378
sg71
g259
sg64
(lp379
g57
(g78
g59
NtRp380
(dp381
g62
(dp382
g82
g83
ssg71
g376
sg64
(lp383
S'debugging'
p384
asbag57
(g78
g59
NtRp385
(dp386
g62
(dp387
g89
g90
ssg71
g376
sg64
(lp388
S':'
asbag57
(g78
g59
NtRp389
(dp390
g62
(dp391
sg71
g376
sg64
(lp392
g57
(g58
g59
NtRp393
(dp394
g62
(dp395
g70
I4
ssg71
g389
sg64
(lp396
g100
asbasbasbag57
(g73
g59
NtRp397
(dp398
g62
(dp399
sg71
g259
sg64
(lp400
g57
(g78
g59
NtRp401
(dp402
g62
(dp403
g82
g83
ssg71
g397
sg64
(lp404
S'gluon_parent'
p405
asbag57
(g78
g59
NtRp406
(dp407
g62
(dp408
g89
g90
ssg71
g397
sg64
(lp409
S':'
asbag57
(g78
g59
NtRp410
(dp411
g62
(dp412
sg71
g397
sg64
(lp413
g57
(g58
g59
NtRp414
(dp415
g62
(dp416
g70
I4
ssg71
g410
sg64
(lp417
S'/usr/share/web2py'
p418
asbasbasbag57
(g73
g59
NtRp419
(dp420
g62
(dp421
sg71
g259
sg64
(lp422
g57
(g78
g59
NtRp423
(dp424
g62
(dp425
g82
g83
ssg71
g419
sg64
(lp426
S'http_accept'
p427
asbag57
(g78
g59
NtRp428
(dp429
g62
(dp430
g89
g90
ssg71
g419
sg64
(lp431
S':'
asbag57
(g78
g59
NtRp432
(dp433
g62
(dp434
sg71
g419
sg64
(lp435
g57
(g58
g59
NtRp436
(dp437
g62
(dp438
g70
I4
ssg71
g432
sg64
(lp439
S'text/html,application/xhtml+xml,application/xml;q=0.9,*/*;q=0.8'
p440
asbasbasbag57
(g73
g59
NtRp441
(dp442
g62
(dp443
sg71
g259
sg64
(lp444
g57
(g78
g59
NtRp445
(dp446
g62
(dp447
g82
g83
ssg71
g441
sg64
(lp448
S'http_accept_encoding'
p449
asbag57
(g78
g59
NtRp450
(dp451
g62
(dp452
g89
g90
ssg71
g441
sg64
(lp453
S':'
asbag57
(g78
g59
NtRp454
(dp455
g62
(dp456
sg71
g441
sg64
(lp457
g57
(g58
g59
NtRp458
(dp459
g62
(dp460
g70
I4
ssg71
g454
sg64
(lp461
S'gzip, deflate'
p462
asbasbasbag57
(g73
g59
NtRp463
(dp464
g62
(dp465
sg71
g259
sg64
(lp466
g57
(g78
g59
NtRp467
(dp468
g62
(dp469
g82
g83
ssg71
g463
sg64
(lp470
S'http_accept_language'
p471
asbag57
(g78
g59
NtRp472
(dp473
g62
(dp474
g89
g90
ssg71
g463
sg64
(lp475
S':'
asbag57
(g78
g59
NtRp476
(dp477
g62
(dp478
sg71
g463
sg64
(lp479
g57
(g58
g59
NtRp480
(dp481
g62
(dp482
g70
I4
ssg71
g476
sg64
(lp483
S'en-US,en;q=0.5'
p484
asbasbasbag57
(g73
g59
NtRp485
(dp486
g62
(dp487
sg71
g259
sg64
(lp488
g57
(g78
g59
NtRp489
(dp490
g62
(dp491
g82
g83
ssg71
g485
sg64
(lp492
S'http_connection'
p493
asbag57
(g78
g59
NtRp494
(dp495
g62
(dp496
g89
g90
ssg71
g485
sg64
(lp497
S':'
asbag57
(g78
g59
NtRp498
(dp499
g62
(dp500
sg71
g485
sg64
(lp501
g57
(g58
g59
NtRp502
(dp503
g62
(dp504
g70
I4
ssg71
g498
sg64
(lp505
S'keep-alive'
p506
asbasbasbag57
(g73
g59
NtRp507
(dp508
g62
(dp509
sg71
g259
sg64
(lp510
g57
(g78
g59
NtRp511
(dp512
g62
(dp513
g82
g83
ssg71
g507
sg64
(lp514
S'http_host'
p515
asbag57
(g78
g59
NtRp516
(dp517
g62
(dp518
g89
g90
ssg71
g507
sg64
(lp519
S':'
asbag57
(g78
g59
NtRp520
(dp521
g62
(dp522
sg71
g507
sg64
(lp523
g57
(g58
g59
NtRp524
(dp525
g62
(dp526
g70
I4
ssg71
g520
sg64
(lp527
S'127.0.0.1:8000'
p528
asbasbasbag57
(g73
g59
NtRp529
(dp530
g62
(dp531
sg71
g259
sg64
(lp532
g57
(g78
g59
NtRp533
(dp534
g62
(dp535
g82
g83
ssg71
g529
sg64
(lp536
S'http_upgrade_insecure_requests'
p537
asbag57
(g78
g59
NtRp538
(dp539
g62
(dp540
g89
g90
ssg71
g529
sg64
(lp541
S':'
asbag57
(g78
g59
NtRp542
(dp543
g62
(dp544
sg71
g529
sg64
(lp545
g57
(g58
g59
NtRp546
(dp547
g62
(dp548
g70
I4
ssg71
g542
sg64
(lp549
S'1'
asbasbasbag57
(g73
g59
NtRp550
(dp551
g62
(dp552
sg71
g259
sg64
(lp553
g57
(g78
g59
NtRp554
(dp555
g62
(dp556
g82
g83
ssg71
g550
sg64
(lp557
S'http_user_agent'
p558
asbag57
(g78
g59
NtRp559
(dp560
g62
(dp561
g89
g90
ssg71
g550
sg64
(lp562
S':'
asbag57
(g78
g59
NtRp563
(dp564
g62
(dp565
sg71
g550
sg64
(lp566
g57
(g58
g59
NtRp567
(dp568
g62
(dp569
g70
I4
ssg71
g563
sg64
(lp570
S'Mozilla/5.0 (X11; Ubuntu; Linux i686; rv:50.0) Gecko/20100101 Firefox/50.0'
p571
asbasbasbag57
(g73
g59
NtRp572
(dp573
g62
(dp574
sg71
g259
sg64
(lp575
g57
(g78
g59
NtRp576
(dp577
g62
(dp578
g82
g83
ssg71
g572
sg64
(lp579
S'is_jython'
p580
asbag57
(g78
g59
NtRp581
(dp582
g62
(dp583
g89
g90
ssg71
g572
sg64
(lp584
S':'
asbag57
(g78
g59
NtRp585
(dp586
g62
(dp587
sg71
g572
sg64
(lp588
g57
(g58
g59
NtRp589
(dp590
g62
(dp591
g70
I4
ssg71
g585
sg64
(lp592
g100
asbasbasbag57
(g73
g59
NtRp593
(dp594
g62
(dp595
sg71
g259
sg64
(lp596
g57
(g78
g59
NtRp597
(dp598
g62
(dp599
g82
g83
ssg71
g593
sg64
(lp600
S'is_pypy'
p601
asbag57
(g78
g59
NtRp602
(dp603
g62
(dp604
g89
g90
ssg71
g593
sg64
(lp605
S':'
asbag57
(g78
g59
NtRp606
(dp607
g62
(dp608
sg71
g593
sg64
(lp609
g57
(g58
g59
NtRp610
(dp611
g62
(dp612
g70
I4
ssg71
g606
sg64
(lp613
g100
asbasbasbag57
(g73
g59
NtRp614
(dp615
g62
(dp616
sg71
g259
sg64
(lp617
g57
(g78
g59
NtRp618
(dp619
g62
(dp620
g82
g83
ssg71
g614
sg64
(lp621
S'path_info'
p622
asbag57
(g78
g59
NtRp623
(dp624
g62
(dp625
g89
g90
ssg71
g614
sg64
(lp626
S':'
asbag57
(g78
g59
NtRp627
(dp628
g62
(dp629
sg71
g614
sg64
(lp630
g57
(g58
g59
NtRp631
(dp632
g62
(dp633
g70
I4
ssg71
g627
sg64
(lp634
S'/welcome/default/index'
p635
asbasbasbag57
(g73
g59
NtRp636
(dp637
g62
(dp638
sg71
g259
sg64
(lp639
g57
(g78
g59
NtRp640
(dp641
g62
(dp642
g82
g83
ssg71
g636
sg64
(lp643
S'query_string'
p644
asbag57
(g78
g59
NtRp645
(dp646
g62
(dp647
g89
g90
ssg71
g636
sg64
(lp648
S':'
asbag57
(g78
g59
NtRp649
(dp650
g62
(dp651
sg71
g636
sg64
(lp652
g57
(g58
g59
NtRp653
(dp654
g62
(dp655
g70
I4
ssg71
g649
sg64
(lp656
S''
asbasbasbag57
(g73
g59
NtRp657
(dp658
g62
(dp659
sg71
g259
sg64
(lp660
g57
(g78
g59
NtRp661
(dp662
g62
(dp663
g82
g83
ssg71
g657
sg64
(lp664
S'remote_addr'
p665
asbag57
(g78
g59
NtRp666
(dp667
g62
(dp668
g89
g90
ssg71
g657
sg64
(lp669
S':'
asbag57
(g78
g59
NtRp670
(dp671
g62
(dp672
sg71
g657
sg64
(lp673
g57
(g58
g59
NtRp674
(dp675
g62
(dp676
g70
I4
ssg71
g670
sg64
(lp677
g190
asbasbasbag57
(g73
g59
NtRp678
(dp679
g62
(dp680
sg71
g259
sg64
(lp681
g57
(g78
g59
NtRp682
(dp683
g62
(dp684
g82
g83
ssg71
g678
sg64
(lp685
S'remote_port'
p686
asbag57
(g78
g59
NtRp687
(dp688
g62
(dp689
g89
g90
ssg71
g678
sg64
(lp690
S':'
asbag57
(g78
g59
NtRp691
(dp692
g62
(dp693
sg71
g678
sg64
(lp694
g57
(g58
g59
NtRp695
(dp696
g62
(dp697
g70
I4
ssg71
g691
sg64
(lp698
S'44538'
p699
asbasbasbag57
(g73
g59
NtRp700
(dp701
g62
(dp702
sg71
g259
sg64
(lp703
g57
(g78
g59
NtRp704
(dp705
g62
(dp706
g82
g83
ssg71
g700
sg64
(lp707
S'request_method'
p708
asbag57
(g78
g59
NtRp709
(dp710
g62
(dp711
g89
g90
ssg71
g700
sg64
(lp712
S':'
asbag57
(g78
g59
NtRp713
(dp714
g62
(dp715
sg71
g700
sg64
(lp716
g57
(g58
g59
NtRp717
(dp718
g62
(dp719
g70
I4
ssg71
g713
sg64
(lp720
S'GET'
p721
asbasbasbag57
(g73
g59
NtRp722
(dp723
g62
(dp724
sg71
g259
sg64
(lp725
g57
(g78
g59
NtRp726
(dp727
g62
(dp728
g82
g83
ssg71
g722
sg64
(lp729
S'script_name'
p730
asbag57
(g78
g59
NtRp731
(dp732
g62
(dp733
g89
g90
ssg71
g722
sg64
(lp734
S':'
asbag57
(g78
g59
NtRp735
(dp736
g62
(dp737
sg71
g722
sg64
(lp738
g57
(g58
g59
NtRp739
(dp740
g62
(dp741
g70
I4
ssg71
g735
sg64
(lp742
S''
asbasbasbag57
(g73
g59
NtRp743
(dp744
g62
(dp745
sg71
g259
sg64
(lp746
g57
(g78
g59
NtRp747
(dp748
g62
(dp749
g82
g83
ssg71
g743
sg64
(lp750
S'server_name'
p751
asbag57
(g78
g59
NtRp752
(dp753
g62
(dp754
g89
g90
ssg71
g743
sg64
(lp755
S':'
asbag57
(g78
g59
NtRp756
(dp757
g62
(dp758
sg71
g743
sg64
(lp759
g57
(g58
g59
NtRp760
(dp761
g62
(dp762
g70
I4
ssg71
g756
sg64
(lp763
S'ayush-HP-430-Notebook-PC'
p764
asbasbasbag57
(g73
g59
NtRp765
(dp766
g62
(dp767
sg71
g259
sg64
(lp768
g57
(g78
g59
NtRp769
(dp770
g62
(dp771
g82
g83
ssg71
g765
sg64
(lp772
S'server_port'
p773
asbag57
(g78
g59
NtRp774
(dp775
g62
(dp776
g89
g90
ssg71
g765
sg64
(lp777
S':'
asbag57
(g78
g59
NtRp778
(dp779
g62
(dp780
sg71
g765
sg64
(lp781
g57
(g58
g59
NtRp782
(dp783
g62
(dp784
g70
I4
ssg71
g778
sg64
(lp785
S'8000'
p786
asbasbasbag57
(g73
g59
NtRp787
(dp788
g62
(dp789
sg71
g259
sg64
(lp790
g57
(g78
g59
NtRp791
(dp792
g62
(dp793
g82
g83
ssg71
g787
sg64
(lp794
S'server_protocol'
p795
asbag57
(g78
g59
NtRp796
(dp797
g62
(dp798
g89
g90
ssg71
g787
sg64
(lp799
S':'
asbag57
(g78
g59
NtRp800
(dp801
g62
(dp802
sg71
g787
sg64
(lp803
g57
(g58
g59
NtRp804
(dp805
g62
(dp806
g70
I4
ssg71
g800
sg64
(lp807
S'HTTP/1.1'
p808
asbasbasbag57
(g73
g59
NtRp809
(dp810
g62
(dp811
sg71
g259
sg64
(lp812
g57
(g78
g59
NtRp813
(dp814
g62
(dp815
g82
g83
ssg71
g809
sg64
(lp816
S'server_software'
p817
asbag57
(g78
g59
NtRp818
(dp819
g62
(dp820
g89
g90
ssg71
g809
sg64
(lp821
S':'
asbag57
(g78
g59
NtRp822
(dp823
g62
(dp824
sg71
g809
sg64
(lp825
g57
(g58
g59
NtRp826
(dp827
g62
(dp828
g70
I4
ssg71
g822
sg64
(lp829
S'Rocket 1.2.4'
p830
asbasbasbag57
(g73
g59
NtRp831
(dp832
g62
(dp833
sg71
g259
sg64
(lp834
g57
(g78
g59
NtRp835
(dp836
g62
(dp837
g82
g83
ssg71
g831
sg64
(lp838
S'web2py_crontype'
p839
asbag57
(g78
g59
NtRp840
(dp841
g62
(dp842
g89
g90
ssg71
g831
sg64
(lp843
S':'
asbag57
(g78
g59
NtRp844
(dp845
g62
(dp846
sg71
g831
sg64
(lp847
g57
(g58
g59
NtRp848
(dp849
g62
(dp850
g70
I4
ssg71
g844
sg64
(lp851
S'hard'
p852
asbasbasbag57
(g73
g59
NtRp853
(dp854
g62
(dp855
sg71
g259
sg64
(lp856
g57
(g78
g59
NtRp857
(dp858
g62
(dp859
g82
g83
ssg71
g853
sg64
(lp860
S'web2py_path'
p861
asbag57
(g78
g59
NtRp862
(dp863
g62
(dp864
g89
g90
ssg71
g853
sg64
(lp865
S':'
asbag57
(g78
g59
NtRp866
(dp867
g62
(dp868
sg71
g853
sg64
(lp869
g57
(g58
g59
NtRp870
(dp871
g62
(dp872
g70
I4
ssg71
g866
sg64
(lp873
g306
asbasbasbag57
(g73
g59
NtRp874
(dp875
g62
(dp876
sg71
g259
sg64
(lp877
g57
(g78
g59
NtRp878
(dp879
g62
(dp880
g82
g83
ssg71
g874
sg64
(lp881
S'web2py_version'
p882
asbag57
(g78
g59
NtRp883
(dp884
g62
(dp885
g89
g90
ssg71
g874
sg64
(lp886
S':'
asbag57
(g78
g59
NtRp887
(dp888
g62
(dp889
sg71
g874
sg64
(lp890
g57
(g58
g59
NtRp891
(dp892
g62
(dp893
g70
I4
ssg71
g887
sg64
(lp894
g57
(g66
g59
NtRp895
(dp896
g62
(dp897
g70
I3
ssg71
Nsg64
(lp898
g57
(g73
g59
NtRp899
(dp900
g62
(dp901
sg71
g895
sg64
(lp902
g57
(g78
g59
NtRp903
(dp904
g62
(dp905
sg71
g899
sg64
(lp906
g57
(g58
g59
NtRp907
(dp908
g62
(dp909
g70
I3
ssg71
g903
sg64
(lp910
S'1'
asbasbasbag57
(g73
g59
NtRp911
(dp912
g62
(dp913
sg71
g895
sg64
(lp914
g57
(g78
g59
NtRp915
(dp916
g62
(dp917
sg71
g911
sg64
(lp918
g57
(g58
g59
NtRp919
(dp920
g62
(dp921
g70
I3
ssg71
g915
sg64
(lp922
S'99'
p923
asbasbasbag57
(g73
g59
NtRp924
(dp925
g62
(dp926
sg71
g895
sg64
(lp927
g57
(g78
g59
NtRp928
(dp929
g62
(dp930
sg71
g924
sg64
(lp931
g57
(g58
g59
NtRp932
(dp933
g62
(dp934
g70
I3
ssg71
g928
sg64
(lp935
S'7'
asbasbasbag57
(g73
g59
NtRp936
(dp937
g62
(dp938
sg71
g895
sg64
(lp939
g57
(g78
g59
NtRp940
(dp941
g62
(dp942
sg71
g936
sg64
(lp943
g57
(g58
g59
NtRp944
(dp945
g62
(dp946
g70
I3
ssg71
g940
sg64
(lp947
S'datetime.datetime(2012, 3, 4, 22, 12, 8)'
p948
asbasbasbag57
(g73
g59
NtRp949
(dp950
g62
(dp951
sg71
g895
sg64
(lp952
g57
(g78
g59
NtRp953
(dp954
g62
(dp955
sg71
g949
sg64
(lp956
g57
(g58
g59
NtRp957
(dp958
g62
(dp959
g70
I3
ssg71
g953
sg64
(lp960
S'stable'
p961
asbasbasbasbasbasbasbag57
(g73
g59
NtRp962
(dp963
g62
(dp964
sg71
g259
sg64
(lp965
g57
(g78
g59
NtRp966
(dp967
g62
(dp968
g82
g83
ssg71
g962
sg64
(lp969
S'wsgi_errors'
p970
asbag57
(g78
g59
NtRp971
(dp972
g62
(dp973
g89
g90
ssg71
g962
sg64
(lp974
S':'
asbag57
(g78
g59
NtRp975
(dp976
g62
(dp977
sg71
g962
sg64
(lp978
g57
(g58
g59
NtRp979
(dp980
g62
(dp981
g70
I4
ssg71
g975
sg64
(lp982
S"<open file '<stderr>', mode 'w' at 0xb754f0d0>"
p983
asbasbasbag57
(g73
g59
NtRp984
(dp985
g62
(dp986
sg71
g259
sg64
(lp987
g57
(g78
g59
NtRp988
(dp989
g62
(dp990
g82
g83
ssg71
g984
sg64
(lp991
S'wsgi_file_wrapper'
p992
asbag57
(g78
g59
NtRp993
(dp994
g62
(dp995
g89
g90
ssg71
g984
sg64
(lp996
S':'
asbag57
(g78
g59
NtRp997
(dp998
g62
(dp999
sg71
g984
sg64
(lp1000
g57
(g58
g59
NtRp1001
(dp1002
g62
(dp1003
g70
I4
ssg71
g997
sg64
(lp1004
S'<class wsgiref.util.FileWrapper at 0xb6a61cec>'
p1005
asbasbasbag57
(g73
g59
NtRp1006
(dp1007
g62
(dp1008
sg71
g259
sg64
(lp1009
g57
(g78
g59
NtRp1010
(dp1011
g62
(dp1012
g82
g83
ssg71
g1006
sg64
(lp1013
S'wsgi_input'
p1014
asbag57
(g78
g59
NtRp1015
(dp1016
g62
(dp1017
g89
g90
ssg71
g1006
sg64
(lp1018
S':'
asbag57
(g78
g59
NtRp1019
(dp1020
g62
(dp1021
sg71
g1006
sg64
(lp1022
g57
(g58
g59
NtRp1023
(dp1024
g62
(dp1025
g70
I4
ssg71
g1019
sg64
(lp1026
S'<socket._fileobject object at 0xb4cc9d6c>'
p1027
asbasbasbag57
(g73
g59
NtRp1028
(dp1029
g62
(dp1030
sg71
g259
sg64
(lp1031
g57
(g78
g59
NtRp1032
(dp1033
g62
(dp1034
g82
g83
ssg71
g1028
sg64
(lp1035
S'wsgi_multiprocess'
p1036
asbag57
(g78
g59
NtRp1037
(dp1038
g62
(dp1039
g89
g90
ssg71
g1028
sg64
(lp1040
S':'
asbag57
(g78
g59
NtRp1041
(dp1042
g62
(dp1043
sg71
g1028
sg64
(lp1044
g57
(g58
g59
NtRp1045
(dp1046
g62
(dp1047
g70
I4
ssg71
g1041
sg64
(lp1048
g100
asbasbasbag57
(g73
g59
NtRp1049
(dp1050
g62
(dp1051
sg71
g259
sg64
(lp1052
g57
(g78
g59
NtRp1053
(dp1054
g62
(dp1055
g82
g83
ssg71
g1049
sg64
(lp1056
S'wsgi_multithread'
p1057
asbag57
(g78
g59
NtRp1058
(dp1059
g62
(dp1060
g89
g90
ssg71
g1049
sg64
(lp1061
S':'
asbag57
(g78
g59
NtRp1062
(dp1063
g62
(dp1064
sg71
g1049
sg64
(lp1065
g57
(g58
g59
NtRp1066
(dp1067
g62
(dp1068
g70
I4
ssg71
g1062
sg64
(lp1069
S'True'
p1070
asbasbasbag57
(g73
g59
NtRp1071
(dp1072
g62
(dp1073
sg71
g259
sg64
(lp1074
g57
(g78
g59
NtRp1075
(dp1076
g62
(dp1077
g82
g83
ssg71
g1071
sg64
(lp1078
S'wsgi_run_once'
p1079
asbag57
(g78
g59
NtRp1080
(dp1081
g62
(dp1082
g89
g90
ssg71
g1071
sg64
(lp1083
S':'
asbag57
(g78
g59
NtRp1084
(dp1085
g62
(dp1086
sg71
g1071
sg64
(lp1087
g57
(g58
g59
NtRp1088
(dp1089
g62
(dp1090
g70
I4
ssg71
g1084
sg64
(lp1091
g100
asbasbasbag57
(g73
g59
NtRp1092
(dp1093
g62
(dp1094
sg71
g259
sg64
(lp1095
g57
(g78
g59
NtRp1096
(dp1097
g62
(dp1098
g82
g83
ssg71
g1092
sg64
(lp1099
S'wsgi_url_scheme'
p1100
asbag57
(g78
g59
NtRp1101
(dp1102
g62
(dp1103
g89
g90
ssg71
g1092
sg64
(lp1104
S':'
asbag57
(g78
g59
NtRp1105
(dp1106
g62
(dp1107
sg71
g1092
sg64
(lp1108
g57
(g58
g59
NtRp1109
(dp1110
g62
(dp1111
g70
I4
ssg71
g1105
sg64
(lp1112
S'http'
p1113
asbasbasbag57
(g73
g59
NtRp1114
(dp1115
g62
(dp1116
sg71
g259
sg64
(lp1117
g57
(g78
g59
NtRp1118
(dp1119
g62
(dp1120
g82
g83
ssg71
g1114
sg64
(lp1121
S'wsgi_version'
p1122
asbag57
(g78
g59
NtRp1123
(dp1124
g62
(dp1125
g89
g90
ssg71
g1114
sg64
(lp1126
S':'
asbag57
(g78
g59
NtRp1127
(dp1128
g62
(dp1129
sg71
g1114
sg64
(lp1130
g57
(g58
g59
NtRp1131
(dp1132
g62
(dp1133
g70
I4
ssg71
g1127
sg64
(lp1134
g57
(g66
g59
NtRp1135
(dp1136
g62
(dp1137
g70
I3
ssg71
Nsg64
(lp1138
g57
(g73
g59
NtRp1139
(dp1140
g62
(dp1141
sg71
g1135
sg64
(lp1142
g57
(g78
g59
NtRp1143
(dp1144
g62
(dp1145
sg71
g1139
sg64
(lp1146
g57
(g58
g59
NtRp1147
(dp1148
g62
(dp1149
g70
I3
ssg71
g1143
sg64
(lp1150
S'1'
asbasbasbag57
(g73
g59
NtRp1151
(dp1152
g62
(dp1153
sg71
g1135
sg64
(lp1154
g57
(g78
g59
NtRp1155
(dp1156
g62
(dp1157
sg71
g1151
sg64
(lp1158
g57
(g58
g59
NtRp1159
(dp1160
g62
(dp1161
g70
I3
ssg71
g1155
sg64
(lp1162
S'0'
asbasbasbasbasbasbasbasbasbasbasbag57
(g73
g59
NtRp1163
(dp1164
g62
(dp1165
sg71
g67
sg64
(lp1166
g57
(g78
g59
NtRp1167
(dp1168
g62
(dp1169
g82
g83
ssg71
g1163
sg64
(lp1170
S'extension'
p1171
asbag57
(g78
g59
NtRp1172
(dp1173
g62
(dp1174
g89
g90
ssg71
g1163
sg64
(lp1175
S':'
asbag57
(g78
g59
NtRp1176
(dp1177
g62
(dp1178
sg71
g1163
sg64
(lp1179
g57
(g58
g59
NtRp1180
(dp1181
g62
(dp1182
g70
I5
ssg71
g1176
sg64
(lp1183
S'html'
p1184
asbasbasbag57
(g73
g59
NtRp1185
(dp1186
g62
(dp1187
sg71
g67
sg64
(lp1188
g57
(g78
g59
NtRp1189
(dp1190
g62
(dp1191
g82
g83
ssg71
g1185
sg64
(lp1192
S'folder'
p1193
asbag57
(g78
g59
NtRp1194
(dp1195
g62
(dp1196
g89
g90
ssg71
g1185
sg64
(lp1197
S':'
asbag57
(g78
g59
NtRp1198
(dp1199
g62
(dp1200
sg71
g1185
sg64
(lp1201
g57
(g58
g59
NtRp1202
(dp1203
g62
(dp1204
g70
I5
ssg71
g1198
sg64
(lp1205
S'/home/ayush/web2py/applications/welcome/'
p1206
asbasbasbag57
(g73
g59
NtRp1207
(dp1208
g62
(dp1209
sg71
g67
sg64
(lp1210
g57
(g78
g59
NtRp1211
(dp1212
g62
(dp1213
g82
g83
ssg71
g1207
sg64
(lp1214
S'function'
p1215
asbag57
(g78
g59
NtRp1216
(dp1217
g62
(dp1218
g89
g90
ssg71
g1207
sg64
(lp1219
S':'
asbag57
(g78
g59
NtRp1220
(dp1221
g62
(dp1222
sg71
g1207
sg64
(lp1223
g57
(g58
g59
NtRp1224
(dp1225
g62
(dp1226
g70
I5
ssg71
g1220
sg64
(lp1227
S'index'
p1228
asbasbasbag57
(g73
g59
NtRp1229
(dp1230
g62
(dp1231
sg71
g67
sg64
(lp1232
g57
(g78
g59
NtRp1233
(dp1234
g62
(dp1235
g82
g83
ssg71
g1229
sg64
(lp1236
S'get_vars'
p1237
asbag57
(g78
g59
NtRp1238
(dp1239
g62
(dp1240
g89
g90
ssg71
g1229
sg64
(lp1241
S':'
asbag57
(g78
g59
NtRp1242
(dp1243
g62
(dp1244
sg71
g1229
sg64
(lp1245
g57
(g58
g59
NtRp1246
(dp1247
g62
(dp1248
g70
I5
ssg71
g1242
sg64
(lp1249
g57
(g66
g59
NtRp1250
(dp1251
g62
(dp1252
g70
I4
ssg71
Nsg64
(lp1253
sbasbasbasbag57
(g73
g59
NtRp1254
(dp1255
g62
(dp1256
sg71
g67
sg64
(lp1257
g57
(g78
g59
NtRp1258
(dp1259
g62
(dp1260
g82
g83
ssg71
g1254
sg64
(lp1261
S'global_settings'
p1262
asbag57
(g78
g59
NtRp1263
(dp1264
g62
(dp1265
g89
g90
ssg71
g1254
sg64
(lp1266
S':'
asbag57
(g78
g59
NtRp1267
(dp1268
g62
(dp1269
sg71
g1254
sg64
(lp1270
g57
(g58
g59
NtRp1271
(dp1272
g62
(dp1273
g70
I5
ssg71
g1267
sg64
(lp1274
g57
(g66
g59
NtRp1275
(dp1276
g62
(dp1277
g70
I4
ssg71
Nsg64
(lp1278
g57
(g73
g59
NtRp1279
(dp1280
g62
(dp1281
sg71
g1275
sg64
(lp1282
g57
(g78
g59
NtRp1283
(dp1284
g62
(dp1285
g82
g83
ssg71
g1279
sg64
(lp1286
g271
asbag57
(g78
g59
NtRp1287
(dp1288
g62
(dp1289
g89
g90
ssg71
g1279
sg64
(lp1290
S':'
asbag57
(g78
g59
NtRp1291
(dp1292
g62
(dp1293
sg71
g1279
sg64
(lp1294
g57
(g58
g59
NtRp1295
(dp1296
g62
(dp1297
g70
I4
ssg71
g1291
sg64
(lp1298
S"set(['/home/ayush/web2py/applications/welcome/'])"
p1299
asbasbasbag57
(g73
g59
NtRp1300
(dp1301
g62
(dp1302
sg71
g1275
sg64
(lp1303
g57
(g78
g59
NtRp1304
(dp1305
g62
(dp1306
g82
g83
ssg71
g1300
sg64
(lp1307
g293
asbag57
(g78
g59
NtRp1308
(dp1309
g62
(dp1310
g89
g90
ssg71
g1300
sg64
(lp1311
S':'
asbag57
(g78
g59
NtRp1312
(dp1313
g62
(dp1314
sg71
g1300
sg64
(lp1315
g57
(g58
g59
NtRp1316
(dp1317
g62
(dp1318
g70
I4
ssg71
g1312
sg64
(lp1319
g306
asbasbasbag57
(g73
g59
NtRp1320
(dp1321
g62
(dp1322
sg71
g1275
sg64
(lp1323
g57
(g78
g59
NtRp1324
(dp1325
g62
(dp1326
g82
g83
ssg71
g1320
sg64
(lp1327
g315
asbag57
(g78
g59
NtRp1328
(dp1329
g62
(dp1330
g89
g90
ssg71
g1320
sg64
(lp1331
S':'
asbag57
(g78
g59
NtRp1332
(dp1333
g62
(dp1334
sg71
g1320
sg64
(lp1335
g57
(g58
g59
NtRp1336
(dp1337
g62
(dp1338
g70
I4
ssg71
g1332
sg64
(lp1339
g57
(g66
g59
NtRp1340
(dp1341
g62
(dp1342
g70
I3
ssg71
Nsg64
(lp1343
sbasbasbasbag57
(g73
g59
NtRp1344
(dp1345
g62
(dp1346
sg71
g1275
sg64
(lp1347
g57
(g78
g59
NtRp1348
(dp1349
g62
(dp1350
g82
g83
ssg71
g1344
sg64
(lp1351
g340
asbag57
(g78
g59
NtRp1352
(dp1353
g62
(dp1354
g89
g90
ssg71
g1344
sg64
(lp1355
S':'
asbag57
(g78
g59
NtRp1356
(dp1357
g62
(dp1358
sg71
g1344
sg64
(lp1359
g57
(g58
g59
NtRp1360
(dp1361
g62
(dp1362
g70
I4
ssg71
g1356
sg64
(lp1363
S"<Values at 0xb718440c: {'verbose': False, 'ip': '127.0.0.1', 'shutdown_timeout': 5, 'taskbar': False, 'nocron': False, 'pid_filename': 'httpserver.pid', 'maxthreads': None, 'softcron': False, 'server_name': 'ayush-HP-430-Notebook-PC', 'bpython': False, 'nogui': False, 'port': 8000, 'extcron': False, 'debuglevel': 30, 'test': None, 'folder': '/home/ayush/web2py', 'config': '', 'import_models': False, 'winservice': '', 'shell': None, 'run': '', 'log_filename': 'httpserver.log', 'args': [''], 'socket_timeout': 5, 'ssl_ca_certificate': None, 'scheduler': None, 'profiler_filename': None, 'ssl_private_key': '', 'password': '<ask>', 'request_queue_size': 5, 'ssl_certificate': '', 'cronjob': False, 'numthreads': None, 'quiet': False, 'interfaces': None, 'minthreads': None, 'timeout': 10, 'plain': False, 'nobanner': False}>"
p1364
asbasbasbag57
(g73
g59
NtRp1365
(dp1366
g62
(dp1367
sg71
g1275
sg64
(lp1368
g57
(g78
g59
NtRp1369
(dp1370
g62
(dp1371
g82
g83
ssg71
g1365
sg64
(lp1372
g362
asbag57
(g78
g59
NtRp1373
(dp1374
g62
(dp1375
g89
g90
ssg71
g1365
sg64
(lp1376
S':'
asbag57
(g78
g59
NtRp1377
(dp1378
g62
(dp1379
sg71
g1365
sg64
(lp1380
g57
(g58
g59
NtRp1381
(dp1382
g62
(dp1383
g70
I4
ssg71
g1377
sg64
(lp1384
S'set([])'
p1385
asbasbasbag57
(g73
g59
NtRp1386
(dp1387
g62
(dp1388
sg71
g1275
sg64
(lp1389
g57
(g78
g59
NtRp1390
(dp1391
g62
(dp1392
g82
g83
ssg71
g1386
sg64
(lp1393
g384
asbag57
(g78
g59
NtRp1394
(dp1395
g62
(dp1396
g89
g90
ssg71
g1386
sg64
(lp1397
S':'
asbag57
(g78
g59
NtRp1398
(dp1399
g62
(dp1400
sg71
g1386
sg64
(lp1401
g57
(g58
g59
NtRp1402
(dp1403
g62
(dp1404
g70
I4
ssg71
g1398
sg64
(lp1405
g100
asbasbasbag57
(g73
g59
NtRp1406
(dp1407
g62
(dp1408
sg71
g1275
sg64
(lp1409
g57
(g78
g59
NtRp1410
(dp1411
g62
(dp1412
g82
g83
ssg71
g1406
sg64
(lp1413
g405
asbag57
(g78
g59
NtRp1414
(dp1415
g62
(dp1416
g89
g90
ssg71
g1406
sg64
(lp1417
S':'
asbag57
(g78
g59
NtRp1418
(dp1419
g62
(dp1420
sg71
g1406
sg64
(lp1421
g57
(g58
g59
NtRp1422
(dp1423
g62
(dp1424
g70
I4
ssg71
g1418
sg64
(lp1425
g418
asbasbasbag57
(g73
g59
NtRp1426
(dp1427
g62
(dp1428
sg71
g1275
sg64
(lp1429
g57
(g78
g59
NtRp1430
(dp1431
g62
(dp1432
g82
g83
ssg71
g1426
sg64
(lp1433
g580
asbag57
(g78
g59
NtRp1434
(dp1435
g62
(dp1436
g89
g90
ssg71
g1426
sg64
(lp1437
S':'
asbag57
(g78
g59
NtRp1438
(dp1439
g62
(dp1440
sg71
g1426
sg64
(lp1441
g57
(g58
g59
NtRp1442
(dp1443
g62
(dp1444
g70
I4
ssg71
g1438
sg64
(lp1445
g100
asbasbasbag57
(g73
g59
NtRp1446
(dp1447
g62
(dp1448
sg71
g1275
sg64
(lp1449
g57
(g78
g59
NtRp1450
(dp1451
g62
(dp1452
g82
g83
ssg71
g1446
sg64
(lp1453
g601
asbag57
(g78
g59
NtRp1454
(dp1455
g62
(dp1456
g89
g90
ssg71
g1446
sg64
(lp1457
S':'
asbag57
(g78
g59
NtRp1458
(dp1459
g62
(dp1460
sg71
g1446
sg64
(lp1461
g57
(g58
g59
NtRp1462
(dp1463
g62
(dp1464
g70
I4
ssg71
g1458
sg64
(lp1465
g100
asbasbasbag57
(g73
g59
NtRp1466
(dp1467
g62
(dp1468
sg71
g1275
sg64
(lp1469
g57
(g78
g59
NtRp1470
(dp1471
g62
(dp1472
g82
g83
ssg71
g1466
sg64
(lp1473
g839
asbag57
(g78
g59
NtRp1474
(dp1475
g62
(dp1476
g89
g90
ssg71
g1466
sg64
(lp1477
S':'
asbag57
(g78
g59
NtRp1478
(dp1479
g62
(dp1480
sg71
g1466
sg64
(lp1481
g57
(g58
g59
NtRp1482
(dp1483
g62
(dp1484
g70
I4
ssg71
g1478
sg64
(lp1485
g852
asbasbasbag57
(g73
g59
NtRp1486
(dp1487
g62
(dp1488
sg71
g1275
sg64
(lp1489
g57
(g78
g59
NtRp1490
(dp1491
g62
(dp1492
g82
g83
ssg71
g1486
sg64
(lp1493
g882
asbag57
(g78
g59
NtRp1494
(dp1495
g62
(dp1496
g89
g90
ssg71
g1486
sg64
(lp1497
S':'
asbag57
(g78
g59
NtRp1498
(dp1499
g62
(dp1500
sg71
g1486
sg64
(lp1501
g57
(g58
g59
NtRp1502
(dp1503
g62
(dp1504
g70
I4
ssg71
g1498
sg64
(lp1505
g57
(g66
g59
NtRp1506
(dp1507
g62
(dp1508
g70
I3
ssg71
Nsg64
(lp1509
g57
(g73
g59
NtRp1510
(dp1511
g62
(dp1512
sg71
g1506
sg64
(lp1513
g57
(g78
g59
NtRp1514
(dp1515
g62
(dp1516
sg71
g1510
sg64
(lp1517
g57
(g58
g59
NtRp1518
(dp1519
g62
(dp1520
g70
I3
ssg71
g1514
sg64
(lp1521
S'1'
asbasbasbag57
(g73
g59
NtRp1522
(dp1523
g62
(dp1524
sg71
g1506
sg64
(lp1525
g57
(g78
g59
NtRp1526
(dp1527
g62
(dp1528
sg71
g1522
sg64
(lp1529
g57
(g58
g59
NtRp1530
(dp1531
g62
(dp1532
g70
I3
ssg71
g1526
sg64
(lp1533
S'99'
p1534
asbasbasbag57
(g73
g59
NtRp1535
(dp1536
g62
(dp1537
sg71
g1506
sg64
(lp1538
g57
(g78
g59
NtRp1539
(dp1540
g62
(dp1541
sg71
g1535
sg64
(lp1542
g57
(g58
g59
NtRp1543
(dp1544
g62
(dp1545
g70
I3
ssg71
g1539
sg64
(lp1546
S'7'
asbasbasbag57
(g73
g59
NtRp1547
(dp1548
g62
(dp1549
sg71
g1506
sg64
(lp1550
g57
(g78
g59
NtRp1551
(dp1552
g62
(dp1553
sg71
g1547
sg64
(lp1554
g57
(g58
g59
NtRp1555
(dp1556
g62
(dp1557
g70
I3
ssg71
g1551
sg64
(lp1558
S'datetime.datetime(2012, 3, 4, 22, 12, 8)'
p1559
asbasbasbag57
(g73
g59
NtRp1560
(dp1561
g62
(dp1562
sg71
g1506
sg64
(lp1563
g57
(g78
g59
NtRp1564
(dp1565
g62
(dp1566
sg71
g1560
sg64
(lp1567
g57
(g58
g59
NtRp1568
(dp1569
g62
(dp1570
g70
I3
ssg71
g1564
sg64
(lp1571
g961
asbasbasbasbasbasbasbasbasbasbasbag57
(g73
g59
NtRp1572
(dp1573
g62
(dp1574
sg71
g67
sg64
(lp1575
g57
(g78
g59
NtRp1576
(dp1577
g62
(dp1578
g82
g83
ssg71
g1572
sg64
(lp1579
S'is_https'
p1580
asbag57
(g78
g59
NtRp1581
(dp1582
g62
(dp1583
g89
g90
ssg71
g1572
sg64
(lp1584
S':'
asbag57
(g78
g59
NtRp1585
(dp1586
g62
(dp1587
sg71
g1572
sg64
(lp1588
g57
(g58
g59
NtRp1589
(dp1590
g62
(dp1591
g70
I5
ssg71
g1585
sg64
(lp1592
g100
asbasbasbag57
(g73
g59
NtRp1593
(dp1594
g62
(dp1595
sg71
g67
sg64
(lp1596
g57
(g78
g59
NtRp1597
(dp1598
g62
(dp1599
g82
g83
ssg71
g1593
sg64
(lp1600
S'is_local'
p1601
asbag57
(g78
g59
NtRp1602
(dp1603
g62
(dp1604
g89
g90
ssg71
g1593
sg64
(lp1605
S':'
asbag57
(g78
g59
NtRp1606
(dp1607
g62
(dp1608
sg71
g1593
sg64
(lp1609
g57
(g58
g59
NtRp1610
(dp1611
g62
(dp1612
g70
I5
ssg71
g1606
sg64
(lp1613
g1070
asbasbasbag57
(g73
g59
NtRp1614
(dp1615
g62
(dp1616
sg71
g67
sg64
(lp1617
g57
(g78
g59
NtRp1618
(dp1619
g62
(dp1620
g82
g83
ssg71
g1614
sg64
(lp1621
S'is_restful'
p1622
asbag57
(g78
g59
NtRp1623
(dp1624
g62
(dp1625
g89
g90
ssg71
g1614
sg64
(lp1626
S':'
asbag57
(g78
g59
NtRp1627
(dp1628
g62
(dp1629
sg71
g1614
sg64
(lp1630
g57
(g58
g59
NtRp1631
(dp1632
g62
(dp1633
g70
I5
ssg71
g1627
sg64
(lp1634
g100
asbasbasbag57
(g73
g59
NtRp1635
(dp1636
g62
(dp1637
sg71
g67
sg64
(lp1638
g57
(g78
g59
NtRp1639
(dp1640
g62
(dp1641
g82
g83
ssg71
g1635
sg64
(lp1642
S'now'
p1643
asbag57
(g78
g59
NtRp1644
(dp1645
g62
(dp1646
g89
g90
ssg71
g1635
sg64
(lp1647
S':'
asbag57
(g78
g59
NtRp1648
(dp1649
g62
(dp1650
sg71
g1635
sg64
(lp1651
g57
(g58
g59
NtRp1652
(dp1653
g62
(dp1654
g70
I5
ssg71
g1648
sg64
(lp1655
S'datetime.datetime(2017, 1, 7, 21, 55, 32, 912350)'
p1656
asbasbasbag57
(g73
g59
NtRp1657
(dp1658
g62
(dp1659
sg71
g67
sg64
(lp1660
g57
(g78
g59
NtRp1661
(dp1662
g62
(dp1663
g82
g83
ssg71
g1657
sg64
(lp1664
S'post_vars'
p1665
asbag57
(g78
g59
NtRp1666
(dp1667
g62
(dp1668
g89
g90
ssg71
g1657
sg64
(lp1669
S':'
asbag57
(g78
g59
NtRp1670
(dp1671
g62
(dp1672
sg71
g1657
sg64
(lp1673
g57
(g58
g59
NtRp1674
(dp1675
g62
(dp1676
g70
I5
ssg71
g1670
sg64
(lp1677
g57
(g66
g59
NtRp1678
(dp1679
g62
(dp1680
g70
I4
ssg71
Nsg64
(lp1681
sbasbasbasbag57
(g73
g59
NtRp1682
(dp1683
g62
(dp1684
sg71
g67
sg64
(lp1685
g57
(g78
g59
NtRp1686
(dp1687
g62
(dp1688
g82
g83
ssg71
g1682
sg64
(lp1689
S'url'
p1690
asbag57
(g78
g59
NtRp1691
(dp1692
g62
(dp1693
g89
g90
ssg71
g1682
sg64
(lp1694
S':'
asbag57
(g78
g59
NtRp1695
(dp1696
g62
(dp1697
sg71
g1682
sg64
(lp1698
g57
(g58
g59
NtRp1699
(dp1700
g62
(dp1701
g70
I5
ssg71
g1695
sg64
(lp1702
S'/welcome/default/index'
p1703
asbasbasbag57
(g73
g59
NtRp1704
(dp1705
g62
(dp1706
sg71
g67
sg64
(lp1707
g57
(g78
g59
NtRp1708
(dp1709
g62
(dp1710
g82
g83
ssg71
g1704
sg64
(lp1711
S'utcnow'
p1712
asbag57
(g78
g59
NtRp1713
(dp1714
g62
(dp1715
g89
g90
ssg71
g1704
sg64
(lp1716
S':'
asbag57
(g78
g59
NtRp1717
(dp1718
g62
(dp1719
sg71
g1704
sg64
(lp1720
g57
(g58
g59
NtRp1721
(dp1722
g62
(dp1723
g70
I5
ssg71
g1717
sg64
(lp1724
S'datetime.datetime(2017, 1, 7, 16, 25, 32, 912377)'
p1725
asbasbasbag57
(g73
g59
NtRp1726
(dp1727
g62
(dp1728
sg71
g67
sg64
(lp1729
g57
(g78
g59
NtRp1730
(dp1731
g62
(dp1732
g82
g83
ssg71
g1726
sg64
(lp1733
S'uuid'
p1734
asbag57
(g78
g59
NtRp1735
(dp1736
g62
(dp1737
g89
g90
ssg71
g1726
sg64
(lp1738
S':'
asbag57
(g78
g59
NtRp1739
(dp1740
g62
(dp1741
sg71
g1726
sg64
(lp1742
g57
(g58
g59
NtRp1743
(dp1744
g62
(dp1745
g70
I5
ssg71
g1739
sg64
(lp1746
S'welcome/127.0.0.1.2017-01-07.21-55-32.aa4c3cbc-e438-424e-93c3-d3e3891a79b6'
p1747
asbasbasbag57
(g73
g59
NtRp1748
(dp1749
g62
(dp1750
sg71
g67
sg64
(lp1751
g57
(g78
g59
NtRp1752
(dp1753
g62
(dp1754
g82
g83
ssg71
g1748
sg64
(lp1755
S'vars'
p1756
asbag57
(g78
g59
NtRp1757
(dp1758
g62
(dp1759
g89
g90
ssg71
g1748
sg64
(lp1760
S':'
asbag57
(g78
g59
NtRp1761
(dp1762
g62
(dp1763
sg71
g1748
sg64
(lp1764
g57
(g58
g59
NtRp1765
(dp1766
g62
(dp1767
g70
I5
ssg71
g1761
sg64
(lp1768
g57
(g66
g59
NtRp1769
(dp1770
g62
(dp1771
g70
I4
ssg71
Nsg64
(lp1772
sbasbasbasbag57
(g73
g59
NtRp1773
(dp1774
g62
(dp1775
sg71
g67
sg64
(lp1776
g57
(g78
g59
NtRp1777
(dp1778
g62
(dp1779
g82
g83
ssg71
g1773
sg64
(lp1780
S'wsgi'
p1781
asbag57
(g78
g59
NtRp1782
(dp1783
g62
(dp1784
g89
g90
ssg71
g1773
sg64
(lp1785
S':'
asbag57
(g78
g59
NtRp1786
(dp1787
g62
(dp1788
sg71
g1773
sg64
(lp1789
g57
(g58
g59
NtRp1790
(dp1791
g62
(dp1792
g70
I5
ssg71
g1786
sg64
(lp1793
g57
(g66
g59
NtRp1794
(dp1795
g62
(dp1796
g70
I4
ssg71
Nsg64
(lp1797
g57
(g73
g59
NtRp1798
(dp1799
g62
(dp1800
sg71
g1794
sg64
(lp1801
g57
(g78
g59
NtRp1802
(dp1803
g62
(dp1804
g82
g83
ssg71
g1798
sg64
(lp1805
S'environ'
p1806
asbag57
(g78
g59
NtRp1807
(dp1808
g62
(dp1809
g89
g90
ssg71
g1798
sg64
(lp1810
S':'
asbag57
(g78
g59
NtRp1811
(dp1812
g62
(dp1813
sg71
g1798
sg64
(lp1814
g57
(g58
g59
NtRp1815
(dp1816
g62
(dp1817
g70
I4
ssg71
g1811
sg64
(lp1818
g57
(g66
g59
NtRp1819
(dp1820
g62
(dp1821
g70
I3
ssg71
Nsg64
(lp1822
g57
(g73
g59
NtRp1823
(dp1824
g62
(dp1825
sg71
g1819
sg64
(lp1826
g57
(g78
g59
NtRp1827
(dp1828
g62
(dp1829
g82
g83
ssg71
g1823
sg64
(lp1830
S'HTTP_ACCEPT'
p1831
asbag57
(g78
g59
NtRp1832
(dp1833
g62
(dp1834
g89
g90
ssg71
g1823
sg64
(lp1835
S':'
asbag57
(g78
g59
NtRp1836
(dp1837
g62
(dp1838
sg71
g1823
sg64
(lp1839
g57
(g58
g59
NtRp1840
(dp1841
g62
(dp1842
g70
I3
ssg71
g1836
sg64
(lp1843
g440
asbasbasbag57
(g73
g59
NtRp1844
(dp1845
g62
(dp1846
sg71
g1819
sg64
(lp1847
g57
(g78
g59
NtRp1848
(dp1849
g62
(dp1850
g82
g83
ssg71
g1844
sg64
(lp1851
S'HTTP_ACCEPT_ENCODING'
p1852
asbag57
(g78
g59
NtRp1853
(dp1854
g62
(dp1855
g89
g90
ssg71
g1844
sg64
(lp1856
S':'
asbag57
(g78
g59
NtRp1857
(dp1858
g62
(dp1859
sg71
g1844
sg64
(lp1860
g57
(g58
g59
NtRp1861
(dp1862
g62
(dp1863
g70
I3
ssg71
g1857
sg64
(lp1864
g462
asbasbasbag57
(g73
g59
NtRp1865
(dp1866
g62
(dp1867
sg71
g1819
sg64
(lp1868
g57
(g78
g59
NtRp1869
(dp1870
g62
(dp1871
g82
g83
ssg71
g1865
sg64
(lp1872
S'HTTP_ACCEPT_LANGUAGE'
p1873
asbag57
(g78
g59
NtRp1874
(dp1875
g62
(dp1876
g89
g90
ssg71
g1865
sg64
(lp1877
S':'
asbag57
(g78
g59
NtRp1878
(dp1879
g62
(dp1880
sg71
g1865
sg64
(lp1881
g57
(g58
g59
NtRp1882
(dp1883
g62
(dp1884
g70
I3
ssg71
g1878
sg64
(lp1885
g484
asbasbasbag57
(g73
g59
NtRp1886
(dp1887
g62
(dp1888
sg71
g1819
sg64
(lp1889
g57
(g78
g59
NtRp1890
(dp1891
g62
(dp1892
g82
g83
ssg71
g1886
sg64
(lp1893
S'HTTP_CONNECTION'
p1894
asbag57
(g78
g59
NtRp1895
(dp1896
g62
(dp1897
g89
g90
ssg71
g1886
sg64
(lp1898
S':'
asbag57
(g78
g59
NtRp1899
(dp1900
g62
(dp1901
sg71
g1886
sg64
(lp1902
g57
(g58
g59
NtRp1903
(dp1904
g62
(dp1905
g70
I3
ssg71
g1899
sg64
(lp1906
g506
asbasbasbag57
(g73
g59
NtRp1907
(dp1908
g62
(dp1909
sg71
g1819
sg64
(lp1910
g57
(g78
g59
NtRp1911
(dp1912
g62
(dp1913
g82
g83
ssg71
g1907
sg64
(lp1914
S'HTTP_HOST'
p1915
asbag57
(g78
g59
NtRp1916
(dp1917
g62
(dp1918
g89
g90
ssg71
g1907
sg64
(lp1919
S':'
asbag57
(g78
g59
NtRp1920
(dp1921
g62
(dp1922
sg71
g1907
sg64
(lp1923
g57
(g58
g59
NtRp1924
(dp1925
g62
(dp1926
g70
I3
ssg71
g1920
sg64
(lp1927
g528
asbasbasbag57
(g73
g59
NtRp1928
(dp1929
g62
(dp1930
sg71
g1819
sg64
(lp1931
g57
(g78
g59
NtRp1932
(dp1933
g62
(dp1934
g82
g83
ssg71
g1928
sg64
(lp1935
S'HTTP_UPGRADE_INSECURE_REQUESTS'
p1936
asbag57
(g78
g59
NtRp1937
(dp1938
g62
(dp1939
g89
g90
ssg71
g1928
sg64
(lp1940
S':'
asbag57
(g78
g59
NtRp1941
(dp1942
g62
(dp1943
sg71
g1928
sg64
(lp1944
g57
(g58
g59
NtRp1945
(dp1946
g62
(dp1947
g70
I3
ssg71
g1941
sg64
(lp1948
S'1'
asbasbasbag57
(g73
g59
NtRp1949
(dp1950
g62
(dp1951
sg71
g1819
sg64
(lp1952
g57
(g78
g59
NtRp1953
(dp1954
g62
(dp1955
g82
g83
ssg71
g1949
sg64
(lp1956
S'HTTP_USER_AGENT'
p1957
asbag57
(g78
g59
NtRp1958
(dp1959
g62
(dp1960
g89
g90
ssg71
g1949
sg64
(lp1961
S':'
asbag57
(g78
g59
NtRp1962
(dp1963
g62
(dp1964
sg71
g1949
sg64
(lp1965
g57
(g58
g59
NtRp1966
(dp1967
g62
(dp1968
g70
I3
ssg71
g1962
sg64
(lp1969
g571
asbasbasbag57
(g73
g59
NtRp1970
(dp1971
g62
(dp1972
sg71
g1819
sg64
(lp1973
g57
(g78
g59
NtRp1974
(dp1975
g62
(dp1976
g82
g83
ssg71
g1970
sg64
(lp1977
S'PATH_INFO'
p1978
asbag57
(g78
g59
NtRp1979
(dp1980
g62
(dp1981
g89
g90
ssg71
g1970
sg64
(lp1982
S':'
asbag57
(g78
g59
NtRp1983
(dp1984
g62
(dp1985
sg71
g1970
sg64
(lp1986
g57
(g58
g59
NtRp1987
(dp1988
g62
(dp1989
g70
I3
ssg71
g1983
sg64
(lp1990
g635
asbasbasbag57
(g73
g59
NtRp1991
(dp1992
g62
(dp1993
sg71
g1819
sg64
(lp1994
g57
(g78
g59
NtRp1995
(dp1996
g62
(dp1997
g82
g83
ssg71
g1991
sg64
(lp1998
S'QUERY_STRING'
p1999
asbag57
(g78
g59
NtRp2000
(dp2001
g62
(dp2002
g89
g90
ssg71
g1991
sg64
(lp2003
S':'
asbag57
(g78
g59
NtRp2004
(dp2005
g62
(dp2006
sg71
g1991
sg64
(lp2007
g57
(g58
g59
NtRp2008
(dp2009
g62
(dp2010
g70
I3
ssg71
g2004
sg64
(lp2011
S''
asbasbasbag57
(g73
g59
NtRp2012
(dp2013
g62
(dp2014
sg71
g1819
sg64
(lp2015
g57
(g78
g59
NtRp2016
(dp2017
g62
(dp2018
g82
g83
ssg71
g2012
sg64
(lp2019
S'REMOTE_ADDR'
p2020
asbag57
(g78
g59
NtRp2021
(dp2022
g62
(dp2023
g89
g90
ssg71
g2012
sg64
(lp2024
S':'
asbag57
(g78
g59
NtRp2025
(dp2026
g62
(dp2027
sg71
g2012
sg64
(lp2028
g57
(g58
g59
NtRp2029
(dp2030
g62
(dp2031
g70
I3
ssg71
g2025
sg64
(lp2032
g190
asbasbasbag57
(g73
g59
NtRp2033
(dp2034
g62
(dp2035
sg71
g1819
sg64
(lp2036
g57
(g78
g59
NtRp2037
(dp2038
g62
(dp2039
g82
g83
ssg71
g2033
sg64
(lp2040
S'REMOTE_PORT'
p2041
asbag57
(g78
g59
NtRp2042
(dp2043
g62
(dp2044
g89
g90
ssg71
g2033
sg64
(lp2045
S':'
asbag57
(g78
g59
NtRp2046
(dp2047
g62
(dp2048
sg71
g2033
sg64
(lp2049
g57
(g58
g59
NtRp2050
(dp2051
g62
(dp2052
g70
I3
ssg71
g2046
sg64
(lp2053
g699
asbasbasbag57
(g73
g59
NtRp2054
(dp2055
g62
(dp2056
sg71
g1819
sg64
(lp2057
g57
(g78
g59
NtRp2058
(dp2059
g62
(dp2060
g82
g83
ssg71
g2054
sg64
(lp2061
S'REQUEST_METHOD'
p2062
asbag57
(g78
g59
NtRp2063
(dp2064
g62
(dp2065
g89
g90
ssg71
g2054
sg64
(lp2066
S':'
asbag57
(g78
g59
NtRp2067
(dp2068
g62
(dp2069
sg71
g2054
sg64
(lp2070
g57
(g58
g59
NtRp2071
(dp2072
g62
(dp2073
g70
I3
ssg71
g2067
sg64
(lp2074
g721
asbasbasbag57
(g73
g59
NtRp2075
(dp2076
g62
(dp2077
sg71
g1819
sg64
(lp2078
g57
(g78
g59
NtRp2079
(dp2080
g62
(dp2081
g82
g83
ssg71
g2075
sg64
(lp2082
S'SCRIPT_NAME'
p2083
asbag57
(g78
g59
NtRp2084
(dp2085
g62
(dp2086
g89
g90
ssg71
g2075
sg64
(lp2087
S':'
asbag57
(g78
g59
NtRp2088
(dp2089
g62
(dp2090
sg71
g2075
sg64
(lp2091
g57
(g58
g59
NtRp2092
(dp2093
g62
(dp2094
g70
I3
ssg71
g2088
sg64
(lp2095
S''
asbasbasbag57
(g73
g59
NtRp2096
(dp2097
g62
(dp2098
sg71
g1819
sg64
(lp2099
g57
(g78
g59
NtRp2100
(dp2101
g62
(dp2102
g82
g83
ssg71
g2096
sg64
(lp2103
S'SERVER_NAME'
p2104
asbag57
(g78
g59
NtRp2105
(dp2106
g62
(dp2107
g89
g90
ssg71
g2096
sg64
(lp2108
S':'
asbag57
(g78
g59
NtRp2109
(dp2110
g62
(dp2111
sg71
g2096
sg64
(lp2112
g57
(g58
g59
NtRp2113
(dp2114
g62
(dp2115
g70
I3
ssg71
g2109
sg64
(lp2116
g764
asbasbasbag57
(g73
g59
NtRp2117
(dp2118
g62
(dp2119
sg71
g1819
sg64
(lp2120
g57
(g78
g59
NtRp2121
(dp2122
g62
(dp2123
g82
g83
ssg71
g2117
sg64
(lp2124
S'SERVER_PORT'
p2125
asbag57
(g78
g59
NtRp2126
(dp2127
g62
(dp2128
g89
g90
ssg71
g2117
sg64
(lp2129
S':'
asbag57
(g78
g59
NtRp2130
(dp2131
g62
(dp2132
sg71
g2117
sg64
(lp2133
g57
(g58
g59
NtRp2134
(dp2135
g62
(dp2136
g70
I3
ssg71
g2130
sg64
(lp2137
g786
asbasbasbag57
(g73
g59
NtRp2138
(dp2139
g62
(dp2140
sg71
g1819
sg64
(lp2141
g57
(g78
g59
NtRp2142
(dp2143
g62
(dp2144
g82
g83
ssg71
g2138
sg64
(lp2145
S'SERVER_PROTOCOL'
p2146
asbag57
(g78
g59
NtRp2147
(dp2148
g62
(dp2149
g89
g90
ssg71
g2138
sg64
(lp2150
S':'
asbag57
(g78
g59
NtRp2151
(dp2152
g62
(dp2153
sg71
g2138
sg64
(lp2154
g57
(g58
g59
NtRp2155
(dp2156
g62
(dp2157
g70
I3
ssg71
g2151
sg64
(lp2158
g808
asbasbasbag57
(g73
g59
NtRp2159
(dp2160
g62
(dp2161
sg71
g1819
sg64
(lp2162
g57
(g78
g59
NtRp2163
(dp2164
g62
(dp2165
g82
g83
ssg71
g2159
sg64
(lp2166
S'SERVER_SOFTWARE'
p2167
asbag57
(g78
g59
NtRp2168
(dp2169
g62
(dp2170
g89
g90
ssg71
g2159
sg64
(lp2171
S':'
asbag57
(g78
g59
NtRp2172
(dp2173
g62
(dp2174
sg71
g2159
sg64
(lp2175
g57
(g58
g59
NtRp2176
(dp2177
g62
(dp2178
g70
I3
ssg71
g2172
sg64
(lp2179
g830
asbasbasbag57
(g73
g59
NtRp2180
(dp2181
g62
(dp2182
sg71
g1819
sg64
(lp2183
g57
(g78
g59
NtRp2184
(dp2185
g62
(dp2186
g82
g83
ssg71
g2180
sg64
(lp2187
S'wsgi.errors'
p2188
asbag57
(g78
g59
NtRp2189
(dp2190
g62
(dp2191
g89
g90
ssg71
g2180
sg64
(lp2192
S':'
asbag57
(g78
g59
NtRp2193
(dp2194
g62
(dp2195
sg71
g2180
sg64
(lp2196
g57
(g58
g59
NtRp2197
(dp2198
g62
(dp2199
g70
I3
ssg71
g2193
sg64
(lp2200
S"<open file '<stderr>', mode 'w' at 0xb754f0d0>"
p2201
asbasbasbag57
(g73
g59
NtRp2202
(dp2203
g62
(dp2204
sg71
g1819
sg64
(lp2205
g57
(g78
g59
NtRp2206
(dp2207
g62
(dp2208
g82
g83
ssg71
g2202
sg64
(lp2209
S'wsgi.file_wrapper'
p2210
asbag57
(g78
g59
NtRp2211
(dp2212
g62
(dp2213
g89
g90
ssg71
g2202
sg64
(lp2214
S':'
asbag57
(g78
g59
NtRp2215
(dp2216
g62
(dp2217
sg71
g2202
sg64
(lp2218
g57
(g58
g59
NtRp2219
(dp2220
g62
(dp2221
g70
I3
ssg71
g2215
sg64
(lp2222
S'<class wsgiref.util.FileWrapper at 0xb6a61cec>'
p2223
asbasbasbag57
(g73
g59
NtRp2224
(dp2225
g62
(dp2226
sg71
g1819
sg64
(lp2227
g57
(g78
g59
NtRp2228
(dp2229
g62
(dp2230
g82
g83
ssg71
g2224
sg64
(lp2231
S'wsgi.input'
p2232
asbag57
(g78
g59
NtRp2233
(dp2234
g62
(dp2235
g89
g90
ssg71
g2224
sg64
(lp2236
S':'
asbag57
(g78
g59
NtRp2237
(dp2238
g62
(dp2239
sg71
g2224
sg64
(lp2240
g57
(g58
g59
NtRp2241
(dp2242
g62
(dp2243
g70
I3
ssg71
g2237
sg64
(lp2244
S'<cStringIO.StringO object at 0xb10c87a0>'
p2245
asbasbasbag57
(g73
g59
NtRp2246
(dp2247
g62
(dp2248
sg71
g1819
sg64
(lp2249
g57
(g78
g59
NtRp2250
(dp2251
g62
(dp2252
g82
g83
ssg71
g2246
sg64
(lp2253
S'wsgi.multiprocess'
p2254
asbag57
(g78
g59
NtRp2255
(dp2256
g62
(dp2257
g89
g90
ssg71
g2246
sg64
(lp2258
S':'
asbag57
(g78
g59
NtRp2259
(dp2260
g62
(dp2261
sg71
g2246
sg64
(lp2262
g57
(g58
g59
NtRp2263
(dp2264
g62
(dp2265
g70
I3
ssg71
g2259
sg64
(lp2266
g100
asbasbasbag57
(g73
g59
NtRp2267
(dp2268
g62
(dp2269
sg71
g1819
sg64
(lp2270
g57
(g78
g59
NtRp2271
(dp2272
g62
(dp2273
g82
g83
ssg71
g2267
sg64
(lp2274
S'wsgi.multithread'
p2275
asbag57
(g78
g59
NtRp2276
(dp2277
g62
(dp2278
g89
g90
ssg71
g2267
sg64
(lp2279
S':'
asbag57
(g78
g59
NtRp2280
(dp2281
g62
(dp2282
sg71
g2267
sg64
(lp2283
g57
(g58
g59
NtRp2284
(dp2285
g62
(dp2286
g70
I3
ssg71
g2280
sg64
(lp2287
g1070
asbasbasbag57
(g73
g59
NtRp2288
(dp2289
g62
(dp2290
sg71
g1819
sg64
(lp2291
g57
(g78
g59
NtRp2292
(dp2293
g62
(dp2294
g82
g83
ssg71
g2288
sg64
(lp2295
S'wsgi.run_once'
p2296
asbag57
(g78
g59
NtRp2297
(dp2298
g62
(dp2299
g89
g90
ssg71
g2288
sg64
(lp2300
S':'
asbag57
(g78
g59
NtRp2301
(dp2302
g62
(dp2303
sg71
g2288
sg64
(lp2304
g57
(g58
g59
NtRp2305
(dp2306
g62
(dp2307
g70
I3
ssg71
g2301
sg64
(lp2308
g100
asbasbasbag57
(g73
g59
NtRp2309
(dp2310
g62
(dp2311
sg71
g1819
sg64
(lp2312
g57
(g78
g59
NtRp2313
(dp2314
g62
(dp2315
g82
g83
ssg71
g2309
sg64
(lp2316
S'wsgi.url_scheme'
p2317
asbag57
(g78
g59
NtRp2318
(dp2319
g62
(dp2320
g89
g90
ssg71
g2309
sg64
(lp2321
S':'
asbag57
(g78
g59
NtRp2322
(dp2323
g62
(dp2324
sg71
g2309
sg64
(lp2325
g57
(g58
g59
NtRp2326
(dp2327
g62
(dp2328
g70
I3
ssg71
g2322
sg64
(lp2329
g1113
asbasbasbag57
(g73
g59
NtRp2330
(dp2331
g62
(dp2332
sg71
g1819
sg64
(lp2333
g57
(g78
g59
NtRp2334
(dp2335
g62
(dp2336
g82
g83
ssg71
g2330
sg64
(lp2337
S'wsgi.version'
p2338
asbag57
(g78
g59
NtRp2339
(dp2340
g62
(dp2341
g89
g90
ssg71
g2330
sg64
(lp2342
S':'
asbag57
(g78
g59
NtRp2343
(dp2344
g62
(dp2345
sg71
g2330
sg64
(lp2346
g57
(g58
g59
NtRp2347
(dp2348
g62
(dp2349
g70
I3
ssg71
g2343
sg64
(lp2350
S'1'
asbasbasbasbasbasbasbasbasbasbasbasbasbsS'frames'
p2351
(lp2352
(dp2353
S'file'
p2354
S'/usr/lib/pymodules/python2.7/gluon/restricted.py'
p2355
sS'dump'
p2356
(dp2357
S'environment'
p2358
S"{'A': <class 'gluon.html.A'>, 'B': <class 'gluon.html.B'>, 'BEAUTIFY': <class 'gluon.html.BEAUTIFY'>, 'BODY': <class 'gluon.html.BODY'>, 'BR': <class 'gluon.html.BR'>, 'BUTTON': <class 'gluon.html.BUTTON'>, 'CAT': <class 'gluon.html.CAT'>, 'CENTER': <class 'gluon.html.CENTER'>, 'CLEANUP': <class 'gluon.validators.CLEANUP'>, 'CODE': <class 'gluon.html.CODE'>, ...}"
p2359
sS'ccode'
p2360
S'<code object <module> at 0xb10e80f8, file "/home...b2py/applications/welcome/models/db.py", line 13>'
p2361
ssS'lnum'
p2362
I205
sS'lines'
p2363
(dp2364
I200
S'    try:'
p2365
sI201
S'        if type(code) == types.CodeType:'
p2366
sI202
S'            ccode = code'
p2367
sI203
S'        else:'
p2368
sI204
S'            ccode = compile2(code,layer)'
p2369
sI205
S'        exec ccode in environment'
p2370
sI206
S'    except HTTP:'
p2371
sI207
S'        raise'
p2372
sI208
S'    except RestrictedError:'
p2373
sI209
S'        # do not encapsulate (obfuscate) the original RestrictedError'
p2374
ssS'call'
p2375
S"(code='# -*- coding: utf-8 -*-\\n\\n#######################...ble auditing\\n# auth.enable_record_versioning(db)\\n', environment={'A': <class 'gluon.html.A'>, 'B': <class 'gluon.html.B'>, 'BEAUTIFY': <class 'gluon.html.BEAUTIFY'>, 'BODY': <class 'gluon.html.BODY'>, 'BR': <class 'gluon.html.BR'>, 'BUTTON': <class 'gluon.html.BUTTON'>, 'CAT': <class 'gluon.html.CAT'>, 'CENTER': <class 'gluon.html.CENTER'>, 'CLEANUP': <class 'gluon.validators.CLEANUP'>, 'CODE': <class 'gluon.html.CODE'>, ...}, layer='/home/ayush/web2py/applications/welcome/models/db.py')"
p2376
sS'func'
p2377
S'restricted'
p2378
sa(dp2379
g2354
S'/home/ayush/web2py/applications/welcome/models/db.py'
p2380
sg2356
(dp2381
S'AppConfig'
p2382
S'undefined'
p2383
sS'gluon'
p2384
g2383
ssg2362
I13
sg2363
(dp2385
I8
S'## if SSL/HTTPS is properly configured and you want all HTTP requests to'
p2386
sI9
S'## be redirected to HTTPS, uncomment the line below:'
p2387
sI10
S'# request.requires_https()'
p2388
sI11
S''
sI12
S'## app configuration made easy. Look inside private/appconfig.ini'
p2389
sI13
S'from gluon.contrib.appconfig import AppConfig'
p2390
sI14
S'## once in production, remove reload=True to gain full speed'
p2391
sI15
S'myconf = AppConfig(reload=True)'
p2392
sI16
S''
sI17
S''
ssg2375
S'()'
p2393
sg2377
S'<module>'
p2394
sa(dp2395
g2354
S'/usr/lib/pymodules/python2.7/gluon/custom_import.py'
p2396
sg2356
(dp2397
S'fromlist'
p2398
S"('AppConfig',)"
p2399
sS'level'
p2400
S'-1'
p2401
ssg2362
I293
sg2363
(dp2402
I288
S'                            .__call__(modules_prefix+"."+name,'
p2403
sI289
S'                                    globals, locals, fromlist, level)'
p2404
sI290
S'                except ImportError:'
p2405
sI291
S'                    pass'
p2406
sI292
S'        return super(_Web2pyImporter, self).__call__(name, globals, locals,'
p2407
sI293
S'                                                    fromlist, level)'
p2408
sI294
S'        #except Exception, e:'
p2409
sI295
S"        #    raise e  # Don't hide something that went wrong"
p2410
sI296
S'        #finally:'
p2411
sI297
S'        self.end()'
p2412
ssg2375
S"(self=<gluon.custom_import._Web2pyImporter object>, name='gluon.contrib.appconfig', globals={'A': <class 'gluon.html.A'>, 'B': <class 'gluon.html.B'>, 'BEAUTIFY': <class 'gluon.html.BEAUTIFY'>, 'BODY': <class 'gluon.html.BODY'>, 'BR': <class 'gluon.html.BR'>, 'BUTTON': <class 'gluon.html.BUTTON'>, 'CAT': <class 'gluon.html.CAT'>, 'CENTER': <class 'gluon.html.CENTER'>, 'CLEANUP': <class 'gluon.validators.CLEANUP'>, 'CODE': <class 'gluon.html.CODE'>, ...}, locals={'A': <class 'gluon.html.A'>, 'B': <class 'gluon.html.B'>, 'BEAUTIFY': <class 'gluon.html.BEAUTIFY'>, 'BODY': <class 'gluon.html.BODY'>, 'BR': <class 'gluon.html.BR'>, 'BUTTON': <class 'gluon.html.BUTTON'>, 'CAT': <class 'gluon.html.CAT'>, 'CENTER': <class 'gluon.html.CENTER'>, 'CLEANUP': <class 'gluon.validators.CLEANUP'>, 'CODE': <class 'gluon.html.CODE'>, ...}, fromlist=('AppConfig',), level=-1)"
p2413
sg2377
S'__call__'
p2414
sa(dp2415
g2354
S'/usr/lib/pymodules/python2.7/gluon/custom_import.py'
p2416
sg2356
(dp2417
S'level'
p2418
S'-1'
p2419
ssg2362
I78
sg2363
(dp2420
I73
S'        """'
p2421
sI74
S'        return _STANDARD_PYTHON_IMPORTER(name,'
p2422
sI75
S'                                         globals,'
p2423
sI76
S'                                         locals,'
p2424
sI77
S'                                         fromlist,'
p2425
sI78
S'                                         level)'
p2426
sI79
S''
sI80
S'    def end(self):'
p2427
sI81
S'        """'
p2428
sI82
S'        Needed for clean up.'
p2429
ssg2375
S"(self=<gluon.custom_import._Web2pyImporter object>, name='gluon.contrib.appconfig', globals={'A': <class 'gluon.html.A'>, 'B': <class 'gluon.html.B'>, 'BEAUTIFY': <class 'gluon.html.BEAUTIFY'>, 'BODY': <class 'gluon.html.BODY'>, 'BR': <class 'gluon.html.BR'>, 'BUTTON': <class 'gluon.html.BUTTON'>, 'CAT': <class 'gluon.html.CAT'>, 'CENTER': <class 'gluon.html.CENTER'>, 'CLEANUP': <class 'gluon.validators.CLEANUP'>, 'CODE': <class 'gluon.html.CODE'>, ...}, locals={'A': <class 'gluon.html.A'>, 'B': <class 'gluon.html.B'>, 'BEAUTIFY': <class 'gluon.html.BEAUTIFY'>, 'BODY': <class 'gluon.html.BODY'>, 'BR': <class 'gluon.html.BR'>, 'BUTTON': <class 'gluon.html.BUTTON'>, 'CAT': <class 'gluon.html.CAT'>, 'CENTER': <class 'gluon.html.CENTER'>, 'CLEANUP': <class 'gluon.validators.CLEANUP'>, 'CODE': <class 'gluon.html.CODE'>, ...}, fromlist=('AppConfig',), level=-1)"
p2430
sg2377
g2414
sasS'pyver'
p2431
S'Python 2.7.6: /usr/bin/python'
p2432
sS'session'
p2433
g57
(g58
g59
NtRp2434
(dp2435
g62
(dp2436
sg64
(lp2437
g57
(g66
g59
NtRp2438
(dp2439
g62
(dp2440
g70
I5
ssg71
Nsg64
(lp2441
sbasbsS'etype'
p2442
S"<type 'exceptions.ImportError'>"
p2443
sS'date'
p2444
S'Sat Jan  7 21:55:33 2017'
p2445
sS'response'
p2446
g57
(g58
g59
NtRp2447
(dp2448
g62
(dp2449
sg64
(lp2450
g57
(g66
g59
NtRp2451
(dp2452
g62
(dp2453
g70
I5
ssg71
Nsg64
(lp2454
g57
(g73
g59
NtRp2455
(dp2456
g62
(dp2457
sg71
g2451
sg64
(lp2458
g57
(g78
g59
NtRp2459
(dp2460
g62
(dp2461
g82
g83
ssg71
g2455
sg64
(lp2462
g155
asbag57
(g78
g59
NtRp2463
(dp2464
g62
(dp2465
g89
g90
ssg71
g2455
sg64
(lp2466
S':'
asbag57
(g78
g59
NtRp2467
(dp2468
g62
(dp2469
sg71
g2455
sg64
(lp2470
g57
(g58
g59
NtRp2471
(dp2472
g62
(dp2473
g70
I5
ssg71
g2467
sg64
(lp2474
S'<cStringIO.StringO object at 0xb10c8460>'
p2475
asbasbasbag57
(g73
g59
NtRp2476
(dp2477
g62
(dp2478
sg71
g2451
sg64
(lp2479
g57
(g78
g59
NtRp2480
(dp2481
g62
(dp2482
g82
g83
ssg71
g2476
sg64
(lp2483
g221
asbag57
(g78
g59
NtRp2484
(dp2485
g62
(dp2486
g89
g90
ssg71
g2476
sg64
(lp2487
S':'
asbag57
(g78
g59
NtRp2488
(dp2489
g62
(dp2490
sg71
g2476
sg64
(lp2491
g57
(g58
g59
NtRp2492
(dp2493
g62
(dp2494
g70
I5
ssg71
g2488
sg64
(lp2495
g57
(g66
g59
NtRp2496
(dp2497
g62
(dp2498
g70
I4
ssg71
Nsg64
(lp2499
g57
(g73
g59
NtRp2500
(dp2501
g62
(dp2502
sg71
g2496
sg64
(lp2503
g57
(g78
g59
NtRp2504
(dp2505
g62
(dp2506
g82
g83
ssg71
g2500
sg64
(lp2507
S'session_id_welcome'
p2508
asbag57
(g78
g59
NtRp2509
(dp2510
g62
(dp2511
g89
g90
ssg71
g2500
sg64
(lp2512
S':'
asbag57
(g78
g59
NtRp2513
(dp2514
g62
(dp2515
sg71
g2500
sg64
(lp2516
g57
(g58
g59
NtRp2517
(dp2518
g62
(dp2519
g70
I4
ssg71
g2513
sg64
(lp2520
g57
(g66
g59
NtRp2521
(dp2522
g62
(dp2523
g70
I3
ssg71
Nsg64
(lp2524
g57
(g73
g59
NtRp2525
(dp2526
g62
(dp2527
sg71
g2521
sg64
(lp2528
g57
(g78
g59
NtRp2529
(dp2530
g62
(dp2531
g82
g83
ssg71
g2525
sg64
(lp2532
S'comment'
p2533
asbag57
(g78
g59
NtRp2534
(dp2535
g62
(dp2536
g89
g90
ssg71
g2525
sg64
(lp2537
S':'
asbag57
(g78
g59
NtRp2538
(dp2539
g62
(dp2540
sg71
g2525
sg64
(lp2541
g57
(g58
g59
NtRp2542
(dp2543
g62
(dp2544
g70
I3
ssg71
g2538
sg64
(lp2545
S''
asbasbasbag57
(g73
g59
NtRp2546
(dp2547
g62
(dp2548
sg71
g2521
sg64
(lp2549
g57
(g78
g59
NtRp2550
(dp2551
g62
(dp2552
g82
g83
ssg71
g2546
sg64
(lp2553
S'domain'
p2554
asbag57
(g78
g59
NtRp2555
(dp2556
g62
(dp2557
g89
g90
ssg71
g2546
sg64
(lp2558
S':'
asbag57
(g78
g59
NtRp2559
(dp2560
g62
(dp2561
sg71
g2546
sg64
(lp2562
g57
(g58
g59
NtRp2563
(dp2564
g62
(dp2565
g70
I3
ssg71
g2559
sg64
(lp2566
S''
asbasbasbag57
(g73
g59
NtRp2567
(dp2568
g62
(dp2569
sg71
g2521
sg64
(lp2570
g57
(g78
g59
NtRp2571
(dp2572
g62
(dp2573
g82
g83
ssg71
g2567
sg64
(lp2574
S'expires'
p2575
asbag57
(g78
g59
NtRp2576
(dp2577
g62
(dp2578
g89
g90
ssg71
g2567
sg64
(lp2579
S':'
asbag57
(g78
g59
NtRp2580
(dp2581
g62
(dp2582
sg71
g2567
sg64
(lp2583
g57
(g58
g59
NtRp2584
(dp2585
g62
(dp2586
g70
I3
ssg71
g2580
sg64
(lp2587
S''
asbasbasbag57
(g73
g59
NtRp2588
(dp2589
g62
(dp2590
sg71
g2521
sg64
(lp2591
g57
(g78
g59
NtRp2592
(dp2593
g62
(dp2594
g82
g83
ssg71
g2588
sg64
(lp2595
S'httponly'
p2596
asbag57
(g78
g59
NtRp2597
(dp2598
g62
(dp2599
g89
g90
ssg71
g2588
sg64
(lp2600
S':'
asbag57
(g78
g59
NtRp2601
(dp2602
g62
(dp2603
sg71
g2588
sg64
(lp2604
g57
(g58
g59
NtRp2605
(dp2606
g62
(dp2607
g70
I3
ssg71
g2601
sg64
(lp2608
S''
asbasbasbag57
(g73
g59
NtRp2609
(dp2610
g62
(dp2611
sg71
g2521
sg64
(lp2612
g57
(g78
g59
NtRp2613
(dp2614
g62
(dp2615
g82
g83
ssg71
g2609
sg64
(lp2616
S'max-age'
p2617
asbag57
(g78
g59
NtRp2618
(dp2619
g62
(dp2620
g89
g90
ssg71
g2609
sg64
(lp2621
S':'
asbag57
(g78
g59
NtRp2622
(dp2623
g62
(dp2624
sg71
g2609
sg64
(lp2625
g57
(g58
g59
NtRp2626
(dp2627
g62
(dp2628
g70
I3
ssg71
g2622
sg64
(lp2629
S''
asbasbasbag57
(g73
g59
NtRp2630
(dp2631
g62
(dp2632
sg71
g2521
sg64
(lp2633
g57
(g78
g59
NtRp2634
(dp2635
g62
(dp2636
g82
g83
ssg71
g2630
sg64
(lp2637
S'path'
p2638
asbag57
(g78
g59
NtRp2639
(dp2640
g62
(dp2641
g89
g90
ssg71
g2630
sg64
(lp2642
S':'
asbag57
(g78
g59
NtRp2643
(dp2644
g62
(dp2645
sg71
g2630
sg64
(lp2646
g57
(g58
g59
NtRp2647
(dp2648
g62
(dp2649
g70
I3
ssg71
g2643
sg64
(lp2650
S'/'
asbasbasbag57
(g73
g59
NtRp2651
(dp2652
g62
(dp2653
sg71
g2521
sg64
(lp2654
g57
(g78
g59
NtRp2655
(dp2656
g62
(dp2657
g82
g83
ssg71
g2651
sg64
(lp2658
S'secure'
p2659
asbag57
(g78
g59
NtRp2660
(dp2661
g62
(dp2662
g89
g90
ssg71
g2651
sg64
(lp2663
S':'
asbag57
(g78
g59
NtRp2664
(dp2665
g62
(dp2666
sg71
g2651
sg64
(lp2667
g57
(g58
g59
NtRp2668
(dp2669
g62
(dp2670
g70
I3
ssg71
g2664
sg64
(lp2671
S''
asbasbasbag57
(g73
g59
NtRp2672
(dp2673
g62
(dp2674
sg71
g2521
sg64
(lp2675
g57
(g78
g59
NtRp2676
(dp2677
g62
(dp2678
g82
g83
ssg71
g2672
sg64
(lp2679
S'version'
p2680
asbag57
(g78
g59
NtRp2681
(dp2682
g62
(dp2683
g89
g90
ssg71
g2672
sg64
(lp2684
S':'
asbag57
(g78
g59
NtRp2685
(dp2686
g62
(dp2687
sg71
g2672
sg64
(lp2688
g57
(g58
g59
NtRp2689
(dp2690
g62
(dp2691
g70
I3
ssg71
g2685
sg64
(lp2692
S''
asbasbasbasbasbasbasbasbasbasbasbag57
(g73
g59
NtRp2693
(dp2694
g62
(dp2695
sg71
g2451
sg64
(lp2696
g57
(g78
g59
NtRp2697
(dp2698
g62
(dp2699
g82
g83
ssg71
g2693
sg64
(lp2700
S'delimiters'
p2701
asbag57
(g78
g59
NtRp2702
(dp2703
g62
(dp2704
g89
g90
ssg71
g2693
sg64
(lp2705
S':'
asbag57
(g78
g59
NtRp2706
(dp2707
g62
(dp2708
sg71
g2693
sg64
(lp2709
g57
(g58
g59
NtRp2710
(dp2711
g62
(dp2712
g70
I5
ssg71
g2706
sg64
(lp2713
g57
(g66
g59
NtRp2714
(dp2715
g62
(dp2716
g70
I4
ssg71
Nsg64
(lp2717
g57
(g73
g59
NtRp2718
(dp2719
g62
(dp2720
sg71
g2714
sg64
(lp2721
g57
(g78
g59
NtRp2722
(dp2723
g62
(dp2724
sg71
g2718
sg64
(lp2725
g57
(g58
g59
NtRp2726
(dp2727
g62
(dp2728
g70
I4
ssg71
g2722
sg64
(lp2729
S'{{'
p2730
asbasbasbag57
(g73
g59
NtRp2731
(dp2732
g62
(dp2733
sg71
g2714
sg64
(lp2734
g57
(g78
g59
NtRp2735
(dp2736
g62
(dp2737
sg71
g2731
sg64
(lp2738
g57
(g58
g59
NtRp2739
(dp2740
g62
(dp2741
g70
I4
ssg71
g2735
sg64
(lp2742
S'}}'
p2743
asbasbasbasbasbasbasbag57
(g73
g59
NtRp2744
(dp2745
g62
(dp2746
sg71
g2451
sg64
(lp2747
g57
(g78
g59
NtRp2748
(dp2749
g62
(dp2750
g82
g83
ssg71
g2744
sg64
(lp2751
S'files'
p2752
asbag57
(g78
g59
NtRp2753
(dp2754
g62
(dp2755
g89
g90
ssg71
g2744
sg64
(lp2756
S':'
asbag57
(g78
g59
NtRp2757
(dp2758
g62
(dp2759
sg71
g2744
sg64
(lp2760
g57
(g58
g59
NtRp2761
(dp2762
g62
(dp2763
g70
I5
ssg71
g2757
sg64
(lp2764
g57
(g66
g59
NtRp2765
(dp2766
g62
(dp2767
g70
I4
ssg71
Nsg64
(lp2768
sbasbasbasbag57
(g73
g59
NtRp2769
(dp2770
g62
(dp2771
sg71
g2451
sg64
(lp2772
g57
(g78
g59
NtRp2773
(dp2774
g62
(dp2775
g82
g83
ssg71
g2769
sg64
(lp2776
S'flash'
p2777
asbag57
(g78
g59
NtRp2778
(dp2779
g62
(dp2780
g89
g90
ssg71
g2769
sg64
(lp2781
S':'
asbag57
(g78
g59
NtRp2782
(dp2783
g62
(dp2784
sg71
g2769
sg64
(lp2785
g57
(g58
g59
NtRp2786
(dp2787
g62
(dp2788
g70
I5
ssg71
g2782
sg64
(lp2789
S''
asbasbasbag57
(g73
g59
NtRp2790
(dp2791
g62
(dp2792
sg71
g2451
sg64
(lp2793
g57
(g78
g59
NtRp2794
(dp2795
g62
(dp2796
g82
g83
ssg71
g2790
sg64
(lp2797
S'generic_patterns'
p2798
asbag57
(g78
g59
NtRp2799
(dp2800
g62
(dp2801
g89
g90
ssg71
g2790
sg64
(lp2802
S':'
asbag57
(g78
g59
NtRp2803
(dp2804
g62
(dp2805
sg71
g2790
sg64
(lp2806
g57
(g58
g59
NtRp2807
(dp2808
g62
(dp2809
g70
I5
ssg71
g2803
sg64
(lp2810
g57
(g66
g59
NtRp2811
(dp2812
g62
(dp2813
g70
I4
ssg71
Nsg64
(lp2814
sbasbasbasbag57
(g73
g59
NtRp2815
(dp2816
g62
(dp2817
sg71
g2451
sg64
(lp2818
g57
(g78
g59
NtRp2819
(dp2820
g62
(dp2821
g82
g83
ssg71
g2815
sg64
(lp2822
S'headers'
p2823
asbag57
(g78
g59
NtRp2824
(dp2825
g62
(dp2826
g89
g90
ssg71
g2815
sg64
(lp2827
S':'
asbag57
(g78
g59
NtRp2828
(dp2829
g62
(dp2830
sg71
g2815
sg64
(lp2831
g57
(g58
g59
NtRp2832
(dp2833
g62
(dp2834
g70
I5
ssg71
g2828
sg64
(lp2835
g57
(g66
g59
NtRp2836
(dp2837
g62
(dp2838
g70
I4
ssg71
Nsg64
(lp2839
g57
(g73
g59
NtRp2840
(dp2841
g62
(dp2842
sg71
g2836
sg64
(lp2843
g57
(g78
g59
NtRp2844
(dp2845
g62
(dp2846
g82
g83
ssg71
g2840
sg64
(lp2847
S'Cache-Control'
p2848
asbag57
(g78
g59
NtRp2849
(dp2850
g62
(dp2851
g89
g90
ssg71
g2840
sg64
(lp2852
S':'
asbag57
(g78
g59
NtRp2853
(dp2854
g62
(dp2855
sg71
g2840
sg64
(lp2856
g57
(g58
g59
NtRp2857
(dp2858
g62
(dp2859
g70
I4
ssg71
g2853
sg64
(lp2860
S'no-store, no-cache, must-revalidate, post-check=0, pre-check=0'
p2861
asbasbasbag57
(g73
g59
NtRp2862
(dp2863
g62
(dp2864
sg71
g2836
sg64
(lp2865
g57
(g78
g59
NtRp2866
(dp2867
g62
(dp2868
g82
g83
ssg71
g2862
sg64
(lp2869
S'Content-Type'
p2870
asbag57
(g78
g59
NtRp2871
(dp2872
g62
(dp2873
g89
g90
ssg71
g2862
sg64
(lp2874
S':'
asbag57
(g78
g59
NtRp2875
(dp2876
g62
(dp2877
sg71
g2862
sg64
(lp2878
g57
(g58
g59
NtRp2879
(dp2880
g62
(dp2881
g70
I4
ssg71
g2875
sg64
(lp2882
S'text/html; charset=utf-8'
p2883
asbasbasbag57
(g73
g59
NtRp2884
(dp2885
g62
(dp2886
sg71
g2836
sg64
(lp2887
g57
(g78
g59
NtRp2888
(dp2889
g62
(dp2890
g82
g83
ssg71
g2884
sg64
(lp2891
S'Expires'
p2892
asbag57
(g78
g59
NtRp2893
(dp2894
g62
(dp2895
g89
g90
ssg71
g2884
sg64
(lp2896
S':'
asbag57
(g78
g59
NtRp2897
(dp2898
g62
(dp2899
sg71
g2884
sg64
(lp2900
g57
(g58
g59
NtRp2901
(dp2902
g62
(dp2903
g70
I4
ssg71
g2897
sg64
(lp2904
S'Sat, 07 Jan 2017 16:25:32 GMT'
p2905
asbasbasbag57
(g73
g59
NtRp2906
(dp2907
g62
(dp2908
sg71
g2836
sg64
(lp2909
g57
(g78
g59
NtRp2910
(dp2911
g62
(dp2912
g82
g83
ssg71
g2906
sg64
(lp2913
S'Pragma'
p2914
asbag57
(g78
g59
NtRp2915
(dp2916
g62
(dp2917
g89
g90
ssg71
g2906
sg64
(lp2918
S':'
asbag57
(g78
g59
NtRp2919
(dp2920
g62
(dp2921
sg71
g2906
sg64
(lp2922
g57
(g58
g59
NtRp2923
(dp2924
g62
(dp2925
g70
I4
ssg71
g2919
sg64
(lp2926
S'no-cache'
p2927
asbasbasbag57
(g73
g59
NtRp2928
(dp2929
g62
(dp2930
sg71
g2836
sg64
(lp2931
g57
(g78
g59
NtRp2932
(dp2933
g62
(dp2934
g82
g83
ssg71
g2928
sg64
(lp2935
S'X-Powered-By'
p2936
asbag57
(g78
g59
NtRp2937
(dp2938
g62
(dp2939
g89
g90
ssg71
g2928
sg64
(lp2940
S':'
asbag57
(g78
g59
NtRp2941
(dp2942
g62
(dp2943
sg71
g2928
sg64
(lp2944
g57
(g58
g59
NtRp2945
(dp2946
g62
(dp2947
g70
I4
ssg71
g2941
sg64
(lp2948
S'web2py'
p2949
asbasbasbasbasbasbasbag57
(g73
g59
NtRp2950
(dp2951
g62
(dp2952
sg71
g2451
sg64
(lp2953
g57
(g78
g59
NtRp2954
(dp2955
g62
(dp2956
g82
g83
ssg71
g2950
sg64
(lp2957
S'menu'
p2958
asbag57
(g78
g59
NtRp2959
(dp2960
g62
(dp2961
g89
g90
ssg71
g2950
sg64
(lp2962
S':'
asbag57
(g78
g59
NtRp2963
(dp2964
g62
(dp2965
sg71
g2950
sg64
(lp2966
g57
(g58
g59
NtRp2967
(dp2968
g62
(dp2969
g70
I5
ssg71
g2963
sg64
(lp2970
g57
(g66
g59
NtRp2971
(dp2972
g62
(dp2973
g70
I4
ssg71
Nsg64
(lp2974
sbasbasbasbag57
(g73
g59
NtRp2975
(dp2976
g62
(dp2977
sg71
g2451
sg64
(lp2978
g57
(g78
g59
NtRp2979
(dp2980
g62
(dp2981
g82
g83
ssg71
g2975
sg64
(lp2982
S'meta'
p2983
asbag57
(g78
g59
NtRp2984
(dp2985
g62
(dp2986
g89
g90
ssg71
g2975
sg64
(lp2987
S':'
asbag57
(g78
g59
NtRp2988
(dp2989
g62
(dp2990
sg71
g2975
sg64
(lp2991
g57
(g58
g59
NtRp2992
(dp2993
g62
(dp2994
g70
I5
ssg71
g2988
sg64
(lp2995
g57
(g66
g59
NtRp2996
(dp2997
g62
(dp2998
g70
I4
ssg71
Nsg64
(lp2999
sbasbasbasbag57
(g73
g59
NtRp3000
(dp3001
g62
(dp3002
sg71
g2451
sg64
(lp3003
g57
(g78
g59
NtRp3004
(dp3005
g62
(dp3006
g82
g83
ssg71
g3000
sg64
(lp3007
S'postprocessing'
p3008
asbag57
(g78
g59
NtRp3009
(dp3010
g62
(dp3011
g89
g90
ssg71
g3000
sg64
(lp3012
S':'
asbag57
(g78
g59
NtRp3013
(dp3014
g62
(dp3015
sg71
g3000
sg64
(lp3016
g57
(g58
g59
NtRp3017
(dp3018
g62
(dp3019
g70
I5
ssg71
g3013
sg64
(lp3020
g57
(g66
g59
NtRp3021
(dp3022
g62
(dp3023
g70
I4
ssg71
Nsg64
(lp3024
sbasbasbasbag57
(g73
g59
NtRp3025
(dp3026
g62
(dp3027
sg71
g2451
sg64
(lp3028
g57
(g78
g59
NtRp3029
(dp3030
g62
(dp3031
g82
g83
ssg71
g3025
sg64
(lp3032
S'session_filename'
p3033
asbag57
(g78
g59
NtRp3034
(dp3035
g62
(dp3036
g89
g90
ssg71
g3025
sg64
(lp3037
S':'
asbag57
(g78
g59
NtRp3038
(dp3039
g62
(dp3040
sg71
g3025
sg64
(lp3041
g57
(g58
g59
NtRp3042
(dp3043
g62
(dp3044
g70
I5
ssg71
g3038
sg64
(lp3045
S'/home/ayush/web2py/applications/welcome/sessions/127.0.0.1-35366cd1-c382-4634-ab00-28638158e392'
p3046
asbasbasbag57
(g73
g59
NtRp3047
(dp3048
g62
(dp3049
sg71
g2451
sg64
(lp3050
g57
(g78
g59
NtRp3051
(dp3052
g62
(dp3053
g82
g83
ssg71
g3047
sg64
(lp3054
S'session_id'
p3055
asbag57
(g78
g59
NtRp3056
(dp3057
g62
(dp3058
g89
g90
ssg71
g3047
sg64
(lp3059
S':'
asbag57
(g78
g59
NtRp3060
(dp3061
g62
(dp3062
sg71
g3047
sg64
(lp3063
g57
(g58
g59
NtRp3064
(dp3065
g62
(dp3066
g70
I5
ssg71
g3060
sg64
(lp3067
S'127.0.0.1-35366cd1-c382-4634-ab00-28638158e392'
p3068
asbasbasbag57
(g73
g59
NtRp3069
(dp3070
g62
(dp3071
sg71
g2451
sg64
(lp3072
g57
(g78
g59
NtRp3073
(dp3074
g62
(dp3075
g82
g83
ssg71
g3069
sg64
(lp3076
S'session_id_name'
p3077
asbag57
(g78
g59
NtRp3078
(dp3079
g62
(dp3080
g89
g90
ssg71
g3069
sg64
(lp3081
S':'
asbag57
(g78
g59
NtRp3082
(dp3083
g62
(dp3084
sg71
g3069
sg64
(lp3085
g57
(g58
g59
NtRp3086
(dp3087
g62
(dp3088
g70
I5
ssg71
g3082
sg64
(lp3089
g2508
asbasbasbag57
(g73
g59
NtRp3090
(dp3091
g62
(dp3092
sg71
g2451
sg64
(lp3093
g57
(g78
g59
NtRp3094
(dp3095
g62
(dp3096
g82
g83
ssg71
g3090
sg64
(lp3097
S'session_new'
p3098
asbag57
(g78
g59
NtRp3099
(dp3100
g62
(dp3101
g89
g90
ssg71
g3090
sg64
(lp3102
S':'
asbag57
(g78
g59
NtRp3103
(dp3104
g62
(dp3105
sg71
g3090
sg64
(lp3106
g57
(g58
g59
NtRp3107
(dp3108
g62
(dp3109
g70
I5
ssg71
g3103
sg64
(lp3110
g1070
asbasbasbag57
(g73
g59
NtRp3111
(dp3112
g62
(dp3113
sg71
g2451
sg64
(lp3114
g57
(g78
g59
NtRp3115
(dp3116
g62
(dp3117
g82
g83
ssg71
g3111
sg64
(lp3118
S'status'
p3119
asbag57
(g78
g59
NtRp3120
(dp3121
g62
(dp3122
g89
g90
ssg71
g3111
sg64
(lp3123
S':'
asbag57
(g78
g59
NtRp3124
(dp3125
g62
(dp3126
sg71
g3111
sg64
(lp3127
g57
(g58
g59
NtRp3128
(dp3129
g62
(dp3130
g70
I5
ssg71
g3124
sg64
(lp3131
S'200'
p3132
asbasbasbag57
(g73
g59
NtRp3133
(dp3134
g62
(dp3135
sg71
g2451
sg64
(lp3136
g57
(g78
g59
NtRp3137
(dp3138
g62
(dp3139
g82
g83
ssg71
g3133
sg64
(lp3140
g1734
asbag57
(g78
g59
NtRp3141
(dp3142
g62
(dp3143
g89
g90
ssg71
g3133
sg64
(lp3144
S':'
asbag57
(g78
g59
NtRp3145
(dp3146
g62
(dp3147
sg71
g3133
sg64
(lp3148
g57
(g58
g59
NtRp3149
(dp3150
g62
(dp3151
g70
I5
ssg71
g3145
sg64
(lp3152
g1747
asbasbasbag57
(g73
g59
NtRp3153
(dp3154
g62
(dp3155
sg71
g2451
sg64
(lp3156
g57
(g78
g59
NtRp3157
(dp3158
g62
(dp3159
g82
g83
ssg71
g3153
sg64
(lp3160
S'view'
p3161
asbag57
(g78
g59
NtRp3162
(dp3163
g62
(dp3164
g89
g90
ssg71
g3153
sg64
(lp3165
S':'
asbag57
(g78
g59
NtRp3166
(dp3167
g62
(dp3168
sg71
g3153
sg64
(lp3169
g57
(g58
g59
NtRp3170
(dp3171
g62
(dp3172
g70
I5
ssg71
g3166
sg64
(lp3173
S'default/index.html'
p3174
asbasbasbasbasbsS'locals'
p3175
(dp3176
S'fromlist'
p3177
S"('AppConfig',)"
p3178
sS'name'
p3179
S"'gluon.contrib.appconfig'"
p3180
sg70
S'-1'
p3181
sS'self'
p3182
S'<gluon.custom_import._Web2pyImporter object>'
p3183
sS'globals'
p3184
S"{'A': <class 'gluon.html.A'>, 'B': <class 'gluon.html.B'>, 'BEAUTIFY': <class 'gluon.html.BEAUTIFY'>, 'BODY': <class 'gluon.html.BODY'>, 'BR': <class 'gluon.html.BR'>, 'BUTTON': <class 'gluon.html.BUTTON'>, 'CAT': <class 'gluon.html.CAT'>, 'CENTER': <class 'gluon.html.CENTER'>, 'CLEANUP': <class 'gluon.validators.CLEANUP'>, 'CODE': <class 'gluon.html.CODE'>, ...}"
p3185
sg3175
S"{'A': <class 'gluon.html.A'>, 'B': <class 'gluon.html.B'>, 'BEAUTIFY': <class 'gluon.html.BEAUTIFY'>, 'BODY': <class 'gluon.html.BODY'>, 'BR': <class 'gluon.html.BR'>, 'BUTTON': <class 'gluon.html.BUTTON'>, 'CAT': <class 'gluon.html.CAT'>, 'CENTER': <class 'gluon.html.CENTER'>, 'CLEANUP': <class 'gluon.validators.CLEANUP'>, 'CODE': <class 'gluon.html.CODE'>, ...}"
p3186
sssS'traceback'
p3187
S'Traceback (most recent call last):\n  File "/usr/lib/pymodules/python2.7/gluon/restricted.py", line 205, in restricted\n    exec ccode in environment\n  File "/home/ayush/web2py/applications/welcome/models/db.py", line 13, in <module>\n    from gluon.contrib.appconfig import AppConfig\n  File "/usr/lib/pymodules/python2.7/gluon/custom_import.py", line 293, in __call__\n    fromlist, level)\n  File "/usr/lib/pymodules/python2.7/gluon/custom_import.py", line 78, in __call__\n    level)\nImportError: No module named appconfig\n'
p3188
s.